
chals:     file format elf64-littleaarch64


Disassembly of section .init:

000000000000a5f0 <_init>:
    a5f0:	d503201f 	nop
    a5f4:	a9bf7bfd 	stp	x29, x30, [sp, #-16]!
    a5f8:	910003fd 	mov	x29, sp
    a5fc:	94000afe 	bl	d1f4 <call_weak_fn>
    a600:	a8c17bfd 	ldp	x29, x30, [sp], #16
    a604:	d65f03c0 	ret

Disassembly of section .plt:

000000000000a610 <.plt>:
    a610:	a9bf7bf0 	stp	x16, x30, [sp, #-16]!
    a614:	d00000d0 	adrp	x16, 24000 <__FRAME_END__+0xff80>
    a618:	f9450211 	ldr	x17, [x16, #2560]
    a61c:	91280210 	add	x16, x16, #0xa00
    a620:	d61f0220 	br	x17
    a624:	d503201f 	nop
    a628:	d503201f 	nop
    a62c:	d503201f 	nop

000000000000a630 <code_606@plt>:
    a630:	d00000d0 	adrp	x16, 24000 <__FRAME_END__+0xff80>
    a634:	f9450611 	ldr	x17, [x16, #2568]
    a638:	91282210 	add	x16, x16, #0xa08
    a63c:	d61f0220 	br	x17

000000000000a640 <code_641@plt>:
    a640:	d00000d0 	adrp	x16, 24000 <__FRAME_END__+0xff80>
    a644:	f9450a11 	ldr	x17, [x16, #2576]
    a648:	91284210 	add	x16, x16, #0xa10
    a64c:	d61f0220 	br	x17

000000000000a650 <code_175@plt>:
    a650:	d00000d0 	adrp	x16, 24000 <__FRAME_END__+0xff80>
    a654:	f9450e11 	ldr	x17, [x16, #2584]
    a658:	91286210 	add	x16, x16, #0xa18
    a65c:	d61f0220 	br	x17

000000000000a660 <code_1272@plt>:
    a660:	d00000d0 	adrp	x16, 24000 <__FRAME_END__+0xff80>
    a664:	f9451211 	ldr	x17, [x16, #2592]
    a668:	91288210 	add	x16, x16, #0xa20
    a66c:	d61f0220 	br	x17

000000000000a670 <code_1276@plt>:
    a670:	d00000d0 	adrp	x16, 24000 <__FRAME_END__+0xff80>
    a674:	f9451611 	ldr	x17, [x16, #2600]
    a678:	9128a210 	add	x16, x16, #0xa28
    a67c:	d61f0220 	br	x17

000000000000a680 <code_286@plt>:
    a680:	d00000d0 	adrp	x16, 24000 <__FRAME_END__+0xff80>
    a684:	f9451a11 	ldr	x17, [x16, #2608]
    a688:	9128c210 	add	x16, x16, #0xa30
    a68c:	d61f0220 	br	x17

000000000000a690 <code_249@plt>:
    a690:	d00000d0 	adrp	x16, 24000 <__FRAME_END__+0xff80>
    a694:	f9451e11 	ldr	x17, [x16, #2616]
    a698:	9128e210 	add	x16, x16, #0xa38
    a69c:	d61f0220 	br	x17

000000000000a6a0 <code_502@plt>:
    a6a0:	d00000d0 	adrp	x16, 24000 <__FRAME_END__+0xff80>
    a6a4:	f9452211 	ldr	x17, [x16, #2624]
    a6a8:	91290210 	add	x16, x16, #0xa40
    a6ac:	d61f0220 	br	x17

000000000000a6b0 <code_284@plt>:
    a6b0:	d00000d0 	adrp	x16, 24000 <__FRAME_END__+0xff80>
    a6b4:	f9452611 	ldr	x17, [x16, #2632]
    a6b8:	91292210 	add	x16, x16, #0xa48
    a6bc:	d61f0220 	br	x17

000000000000a6c0 <code_208@plt>:
    a6c0:	d00000d0 	adrp	x16, 24000 <__FRAME_END__+0xff80>
    a6c4:	f9452a11 	ldr	x17, [x16, #2640]
    a6c8:	91294210 	add	x16, x16, #0xa50
    a6cc:	d61f0220 	br	x17

000000000000a6d0 <code_280@plt>:
    a6d0:	d00000d0 	adrp	x16, 24000 <__FRAME_END__+0xff80>
    a6d4:	f9452e11 	ldr	x17, [x16, #2648]
    a6d8:	91296210 	add	x16, x16, #0xa58
    a6dc:	d61f0220 	br	x17

000000000000a6e0 <code_541@plt>:
    a6e0:	d00000d0 	adrp	x16, 24000 <__FRAME_END__+0xff80>
    a6e4:	f9453211 	ldr	x17, [x16, #2656]
    a6e8:	91298210 	add	x16, x16, #0xa60
    a6ec:	d61f0220 	br	x17

000000000000a6f0 <code_206@plt>:
    a6f0:	d00000d0 	adrp	x16, 24000 <__FRAME_END__+0xff80>
    a6f4:	f9453611 	ldr	x17, [x16, #2664]
    a6f8:	9129a210 	add	x16, x16, #0xa68
    a6fc:	d61f0220 	br	x17

000000000000a700 <code_786@plt>:
    a700:	d00000d0 	adrp	x16, 24000 <__FRAME_END__+0xff80>
    a704:	f9453a11 	ldr	x17, [x16, #2672]
    a708:	9129c210 	add	x16, x16, #0xa70
    a70c:	d61f0220 	br	x17

000000000000a710 <code_1237@plt>:
    a710:	d00000d0 	adrp	x16, 24000 <__FRAME_END__+0xff80>
    a714:	f9453e11 	ldr	x17, [x16, #2680]
    a718:	9129e210 	add	x16, x16, #0xa78
    a71c:	d61f0220 	br	x17

000000000000a720 <code_1008@plt>:
    a720:	d00000d0 	adrp	x16, 24000 <__FRAME_END__+0xff80>
    a724:	f9454211 	ldr	x17, [x16, #2688]
    a728:	912a0210 	add	x16, x16, #0xa80
    a72c:	d61f0220 	br	x17

000000000000a730 <code_788@plt>:
    a730:	d00000d0 	adrp	x16, 24000 <__FRAME_END__+0xff80>
    a734:	f9454611 	ldr	x17, [x16, #2696]
    a738:	912a2210 	add	x16, x16, #0xa88
    a73c:	d61f0220 	br	x17

000000000000a740 <code_704@plt>:
    a740:	d00000d0 	adrp	x16, 24000 <__FRAME_END__+0xff80>
    a744:	f9454a11 	ldr	x17, [x16, #2704]
    a748:	912a4210 	add	x16, x16, #0xa90
    a74c:	d61f0220 	br	x17

000000000000a750 <code_741@plt>:
    a750:	d00000d0 	adrp	x16, 24000 <__FRAME_END__+0xff80>
    a754:	f9454e11 	ldr	x17, [x16, #2712]
    a758:	912a6210 	add	x16, x16, #0xa98
    a75c:	d61f0220 	br	x17

000000000000a760 <code_1045@plt>:
    a760:	d00000d0 	adrp	x16, 24000 <__FRAME_END__+0xff80>
    a764:	f9455211 	ldr	x17, [x16, #2720]
    a768:	912a8210 	add	x16, x16, #0xaa0
    a76c:	d61f0220 	br	x17

000000000000a770 <code_1235@plt>:
    a770:	d00000d0 	adrp	x16, 24000 <__FRAME_END__+0xff80>
    a774:	f9455611 	ldr	x17, [x16, #2728]
    a778:	912aa210 	add	x16, x16, #0xaa8
    a77c:	d61f0220 	br	x17

000000000000a780 <code_738@plt>:
    a780:	d00000d0 	adrp	x16, 24000 <__FRAME_END__+0xff80>
    a784:	f9455a11 	ldr	x17, [x16, #2736]
    a788:	912ac210 	add	x16, x16, #0xab0
    a78c:	d61f0220 	br	x17

000000000000a790 <code_706@plt>:
    a790:	d00000d0 	adrp	x16, 24000 <__FRAME_END__+0xff80>
    a794:	f9455e11 	ldr	x17, [x16, #2744]
    a798:	912ae210 	add	x16, x16, #0xab8
    a79c:	d61f0220 	br	x17

000000000000a7a0 <code_1239@plt>:
    a7a0:	d00000d0 	adrp	x16, 24000 <__FRAME_END__+0xff80>
    a7a4:	f9456211 	ldr	x17, [x16, #2752]
    a7a8:	912b0210 	add	x16, x16, #0xac0
    a7ac:	d61f0220 	br	x17

000000000000a7b0 <code_1152@plt>:
    a7b0:	d00000d0 	adrp	x16, 24000 <__FRAME_END__+0xff80>
    a7b4:	f9456611 	ldr	x17, [x16, #2760]
    a7b8:	912b2210 	add	x16, x16, #0xac8
    a7bc:	d61f0220 	br	x17

000000000000a7c0 <code_849@plt>:
    a7c0:	d00000d0 	adrp	x16, 24000 <__FRAME_END__+0xff80>
    a7c4:	f9456a11 	ldr	x17, [x16, #2768]
    a7c8:	912b4210 	add	x16, x16, #0xad0
    a7cc:	d61f0220 	br	x17

000000000000a7d0 <code_775@plt>:
    a7d0:	d00000d0 	adrp	x16, 24000 <__FRAME_END__+0xff80>
    a7d4:	f9456e11 	ldr	x17, [x16, #2776]
    a7d8:	912b6210 	add	x16, x16, #0xad8
    a7dc:	d61f0220 	br	x17

000000000000a7e0 <code_1004@plt>:
    a7e0:	d00000d0 	adrp	x16, 24000 <__FRAME_END__+0xff80>
    a7e4:	f9457211 	ldr	x17, [x16, #2784]
    a7e8:	912b8210 	add	x16, x16, #0xae0
    a7ec:	d61f0220 	br	x17

000000000000a7f0 <code_1193@plt>:
    a7f0:	d00000d0 	adrp	x16, 24000 <__FRAME_END__+0xff80>
    a7f4:	f9457611 	ldr	x17, [x16, #2792]
    a7f8:	912ba210 	add	x16, x16, #0xae8
    a7fc:	d61f0220 	br	x17

000000000000a800 <code_1156@plt>:
    a800:	d00000d0 	adrp	x16, 24000 <__FRAME_END__+0xff80>
    a804:	f9457a11 	ldr	x17, [x16, #2800]
    a808:	912bc210 	add	x16, x16, #0xaf0
    a80c:	d61f0220 	br	x17

000000000000a810 <code_771@plt>:
    a810:	d00000d0 	adrp	x16, 24000 <__FRAME_END__+0xff80>
    a814:	f9457e11 	ldr	x17, [x16, #2808]
    a818:	912be210 	add	x16, x16, #0xaf8
    a81c:	d61f0220 	br	x17

000000000000a820 <code_1191@plt>:
    a820:	d00000d0 	adrp	x16, 24000 <__FRAME_END__+0xff80>
    a824:	f9458211 	ldr	x17, [x16, #2816]
    a828:	912c0210 	add	x16, x16, #0xb00
    a82c:	d61f0220 	br	x17

000000000000a830 <code_200@plt>:
    a830:	d00000d0 	adrp	x16, 24000 <__FRAME_END__+0xff80>
    a834:	f9458611 	ldr	x17, [x16, #2824]
    a838:	912c2210 	add	x16, x16, #0xb08
    a83c:	d61f0220 	br	x17

000000000000a840 <code_380@plt>:
    a840:	d00000d0 	adrp	x16, 24000 <__FRAME_END__+0xff80>
    a844:	f9458a11 	ldr	x17, [x16, #2832]
    a848:	912c4210 	add	x16, x16, #0xb10
    a84c:	d61f0220 	br	x17

000000000000a850 <code_1309@plt>:
    a850:	d00000d0 	adrp	x16, 24000 <__FRAME_END__+0xff80>
    a854:	f9458e11 	ldr	x17, [x16, #2840]
    a858:	912c6210 	add	x16, x16, #0xb18
    a85c:	d61f0220 	br	x17

000000000000a860 <code_1136@plt>:
    a860:	d00000d0 	adrp	x16, 24000 <__FRAME_END__+0xff80>
    a864:	f9459211 	ldr	x17, [x16, #2848]
    a868:	912c8210 	add	x16, x16, #0xb20
    a86c:	d61f0220 	br	x17

000000000000a870 <code_847@plt>:
    a870:	d00000d0 	adrp	x16, 24000 <__FRAME_END__+0xff80>
    a874:	f9459611 	ldr	x17, [x16, #2856]
    a878:	912ca210 	add	x16, x16, #0xb28
    a87c:	d61f0220 	br	x17

000000000000a880 <__libc_start_main@plt>:
    a880:	d00000d0 	adrp	x16, 24000 <__FRAME_END__+0xff80>
    a884:	f9459a11 	ldr	x17, [x16, #2864]
    a888:	912cc210 	add	x16, x16, #0xb30
    a88c:	d61f0220 	br	x17

000000000000a890 <code_877@plt>:
    a890:	d00000d0 	adrp	x16, 24000 <__FRAME_END__+0xff80>
    a894:	f9459e11 	ldr	x17, [x16, #2872]
    a898:	912ce210 	add	x16, x16, #0xb38
    a89c:	d61f0220 	br	x17

000000000000a8a0 <code_808@plt>:
    a8a0:	d00000d0 	adrp	x16, 24000 <__FRAME_END__+0xff80>
    a8a4:	f945a211 	ldr	x17, [x16, #2880]
    a8a8:	912d0210 	add	x16, x16, #0xb40
    a8ac:	d61f0220 	br	x17

000000000000a8b0 <code_57@plt>:
    a8b0:	d00000d0 	adrp	x16, 24000 <__FRAME_END__+0xff80>
    a8b4:	f945a611 	ldr	x17, [x16, #2888]
    a8b8:	912d2210 	add	x16, x16, #0xb48
    a8bc:	d61f0220 	br	x17

000000000000a8c0 <code_1132@plt>:
    a8c0:	d00000d0 	adrp	x16, 24000 <__FRAME_END__+0xff80>
    a8c4:	f945aa11 	ldr	x17, [x16, #2896]
    a8c8:	912d4210 	add	x16, x16, #0xb50
    a8cc:	d61f0220 	br	x17

000000000000a8d0 <code_1134@plt>:
    a8d0:	d00000d0 	adrp	x16, 24000 <__FRAME_END__+0xff80>
    a8d4:	f945ae11 	ldr	x17, [x16, #2904]
    a8d8:	912d6210 	add	x16, x16, #0xb58
    a8dc:	d61f0220 	br	x17

000000000000a8e0 <code_841@plt>:
    a8e0:	d00000d0 	adrp	x16, 24000 <__FRAME_END__+0xff80>
    a8e4:	f945b211 	ldr	x17, [x16, #2912]
    a8e8:	912d8210 	add	x16, x16, #0xb60
    a8ec:	d61f0220 	br	x17

000000000000a8f0 <code_1348@plt>:
    a8f0:	d00000d0 	adrp	x16, 24000 <__FRAME_END__+0xff80>
    a8f4:	f945b611 	ldr	x17, [x16, #2920]
    a8f8:	912da210 	add	x16, x16, #0xb68
    a8fc:	d61f0220 	br	x17

000000000000a900 <code_1346@plt>:
    a900:	d00000d0 	adrp	x16, 24000 <__FRAME_END__+0xff80>
    a904:	f945ba11 	ldr	x17, [x16, #2928]
    a908:	912dc210 	add	x16, x16, #0xb70
    a90c:	d61f0220 	br	x17

000000000000a910 <code_10@plt>:
    a910:	d00000d0 	adrp	x16, 24000 <__FRAME_END__+0xff80>
    a914:	f945be11 	ldr	x17, [x16, #2936]
    a918:	912de210 	add	x16, x16, #0xb78
    a91c:	d61f0220 	br	x17

000000000000a920 <code_1291@plt>:
    a920:	d00000d0 	adrp	x16, 24000 <__FRAME_END__+0xff80>
    a924:	f945c211 	ldr	x17, [x16, #2944]
    a928:	912e0210 	add	x16, x16, #0xb80
    a92c:	d61f0220 	br	x17

000000000000a930 <code_884@plt>:
    a930:	d00000d0 	adrp	x16, 24000 <__FRAME_END__+0xff80>
    a934:	f945c611 	ldr	x17, [x16, #2952]
    a938:	912e2210 	add	x16, x16, #0xb88
    a93c:	d61f0220 	br	x17

000000000000a940 <code_1293@plt>:
    a940:	d00000d0 	adrp	x16, 24000 <__FRAME_END__+0xff80>
    a944:	f945ca11 	ldr	x17, [x16, #2960]
    a948:	912e4210 	add	x16, x16, #0xb90
    a94c:	d61f0220 	br	x17

000000000000a950 <code_1385@plt>:
    a950:	d00000d0 	adrp	x16, 24000 <__FRAME_END__+0xff80>
    a954:	f945ce11 	ldr	x17, [x16, #2968]
    a958:	912e6210 	add	x16, x16, #0xb98
    a95c:	d61f0220 	br	x17

000000000000a960 <code_300@plt>:
    a960:	d00000d0 	adrp	x16, 24000 <__FRAME_END__+0xff80>
    a964:	f945d211 	ldr	x17, [x16, #2976]
    a968:	912e8210 	add	x16, x16, #0xba0
    a96c:	d61f0220 	br	x17

000000000000a970 <code_473@plt>:
    a970:	d00000d0 	adrp	x16, 24000 <__FRAME_END__+0xff80>
    a974:	f945d611 	ldr	x17, [x16, #2984]
    a978:	912ea210 	add	x16, x16, #0xba8
    a97c:	d61f0220 	br	x17

000000000000a980 <code_1250@plt>:
    a980:	d00000d0 	adrp	x16, 24000 <__FRAME_END__+0xff80>
    a984:	f945da11 	ldr	x17, [x16, #2992]
    a988:	912ec210 	add	x16, x16, #0xbb0
    a98c:	d61f0220 	br	x17

000000000000a990 <code_304@plt>:
    a990:	d00000d0 	adrp	x16, 24000 <__FRAME_END__+0xff80>
    a994:	f945de11 	ldr	x17, [x16, #3000]
    a998:	912ee210 	add	x16, x16, #0xbb8
    a99c:	d61f0220 	br	x17

000000000000a9a0 <code_949@plt>:
    a9a0:	d00000d0 	adrp	x16, 24000 <__FRAME_END__+0xff80>
    a9a4:	f945e211 	ldr	x17, [x16, #3008]
    a9a8:	912f0210 	add	x16, x16, #0xbc0
    a9ac:	d61f0220 	br	x17

000000000000a9b0 <code_1254@plt>:
    a9b0:	d00000d0 	adrp	x16, 24000 <__FRAME_END__+0xff80>
    a9b4:	f945e611 	ldr	x17, [x16, #3016]
    a9b8:	912f2210 	add	x16, x16, #0xbc8
    a9bc:	d61f0220 	br	x17

000000000000a9c0 <code_1217@plt>:
    a9c0:	d00000d0 	adrp	x16, 24000 <__FRAME_END__+0xff80>
    a9c4:	f945ea11 	ldr	x17, [x16, #3024]
    a9c8:	912f4210 	add	x16, x16, #0xbd0
    a9cc:	d61f0220 	br	x17

000000000000a9d0 <code_1446@plt>:
    a9d0:	d00000d0 	adrp	x16, 24000 <__FRAME_END__+0xff80>
    a9d4:	f945ee11 	ldr	x17, [x16, #3032]
    a9d8:	912f6210 	add	x16, x16, #0xbd8
    a9dc:	d61f0220 	br	x17

000000000000a9e0 <code_1409@plt>:
    a9e0:	d00000d0 	adrp	x16, 24000 <__FRAME_END__+0xff80>
    a9e4:	f945f211 	ldr	x17, [x16, #3040]
    a9e8:	912f8210 	add	x16, x16, #0xbe0
    a9ec:	d61f0220 	br	x17

000000000000a9f0 <code_1256@plt>:
    a9f0:	d00000d0 	adrp	x16, 24000 <__FRAME_END__+0xff80>
    a9f4:	f945f611 	ldr	x17, [x16, #3048]
    a9f8:	912fa210 	add	x16, x16, #0xbe8
    a9fc:	d61f0220 	br	x17

000000000000aa00 <code_947@plt>:
    aa00:	d00000d0 	adrp	x16, 24000 <__FRAME_END__+0xff80>
    aa04:	f945fa11 	ldr	x17, [x16, #3056]
    aa08:	912fc210 	add	x16, x16, #0xbf0
    aa0c:	d61f0220 	br	x17

000000000000aa10 <code_1219@plt>:
    aa10:	d00000d0 	adrp	x16, 24000 <__FRAME_END__+0xff80>
    aa14:	f945fe11 	ldr	x17, [x16, #3064]
    aa18:	912fe210 	add	x16, x16, #0xbf8
    aa1c:	d61f0220 	br	x17

000000000000aa20 <code_1407@plt>:
    aa20:	d00000d0 	adrp	x16, 24000 <__FRAME_END__+0xff80>
    aa24:	f9460211 	ldr	x17, [x16, #3072]
    aa28:	91300210 	add	x16, x16, #0xc00
    aa2c:	d61f0220 	br	x17

000000000000aa30 <code_1215@plt>:
    aa30:	d00000d0 	adrp	x16, 24000 <__FRAME_END__+0xff80>
    aa34:	f9460611 	ldr	x17, [x16, #3080]
    aa38:	91302210 	add	x16, x16, #0xc08
    aa3c:	d61f0220 	br	x17

000000000000aa40 <code_1448@plt>:
    aa40:	d00000d0 	adrp	x16, 24000 <__FRAME_END__+0xff80>
    aa44:	f9460a11 	ldr	x17, [x16, #3088]
    aa48:	91304210 	add	x16, x16, #0xc10
    aa4c:	d61f0220 	br	x17

000000000000aa50 <code_945@plt>:
    aa50:	d00000d0 	adrp	x16, 24000 <__FRAME_END__+0xff80>
    aa54:	f9460e11 	ldr	x17, [x16, #3096]
    aa58:	91306210 	add	x16, x16, #0xc18
    aa5c:	d61f0220 	br	x17

000000000000aa60 <code_908@plt>:
    aa60:	d00000d0 	adrp	x16, 24000 <__FRAME_END__+0xff80>
    aa64:	f9461211 	ldr	x17, [x16, #3104]
    aa68:	91308210 	add	x16, x16, #0xc20
    aa6c:	d61f0220 	br	x17

000000000000aa70 <code_906@plt>:
    aa70:	d00000d0 	adrp	x16, 24000 <__FRAME_END__+0xff80>
    aa74:	f9461611 	ldr	x17, [x16, #3112]
    aa78:	9130a210 	add	x16, x16, #0xc28
    aa7c:	d61f0220 	br	x17

000000000000aa80 <code_943@plt>:
    aa80:	d00000d0 	adrp	x16, 24000 <__FRAME_END__+0xff80>
    aa84:	f9461a11 	ldr	x17, [x16, #3120]
    aa88:	9130c210 	add	x16, x16, #0xc30
    aa8c:	d61f0220 	br	x17

000000000000aa90 <code_96@plt>:
    aa90:	d00000d0 	adrp	x16, 24000 <__FRAME_END__+0xff80>
    aa94:	f9461e11 	ldr	x17, [x16, #3128]
    aa98:	9130e210 	add	x16, x16, #0xc38
    aa9c:	d61f0220 	br	x17

000000000000aaa0 <code_986@plt>:
    aaa0:	d00000d0 	adrp	x16, 24000 <__FRAME_END__+0xff80>
    aaa4:	f9462211 	ldr	x17, [x16, #3136]
    aaa8:	91310210 	add	x16, x16, #0xc40
    aaac:	d61f0220 	br	x17

000000000000aab0 <code_1213@plt>:
    aab0:	d00000d0 	adrp	x16, 24000 <__FRAME_END__+0xff80>
    aab4:	f9462611 	ldr	x17, [x16, #3144]
    aab8:	91312210 	add	x16, x16, #0xc48
    aabc:	d61f0220 	br	x17

000000000000aac0 <code_180@plt>:
    aac0:	d00000d0 	adrp	x16, 24000 <__FRAME_END__+0xff80>
    aac4:	f9462a11 	ldr	x17, [x16, #3152]
    aac8:	91314210 	add	x16, x16, #0xc50
    aacc:	d61f0220 	br	x17

000000000000aad0 <code_1211@plt>:
    aad0:	d00000d0 	adrp	x16, 24000 <__FRAME_END__+0xff80>
    aad4:	f9462e11 	ldr	x17, [x16, #3160]
    aad8:	91316210 	add	x16, x16, #0xc58
    aadc:	d61f0220 	br	x17

000000000000aae0 <code_141@plt>:
    aae0:	d00000d0 	adrp	x16, 24000 <__FRAME_END__+0xff80>
    aae4:	f9463211 	ldr	x17, [x16, #3168]
    aae8:	91318210 	add	x16, x16, #0xc60
    aaec:	d61f0220 	br	x17

000000000000aaf0 <code_591@plt>:
    aaf0:	d00000d0 	adrp	x16, 24000 <__FRAME_END__+0xff80>
    aaf4:	f9463611 	ldr	x17, [x16, #3176]
    aaf8:	9131a210 	add	x16, x16, #0xc68
    aafc:	d61f0220 	br	x17

000000000000ab00 <code_558@plt>:
    ab00:	d00000d0 	adrp	x16, 24000 <__FRAME_END__+0xff80>
    ab04:	f9463a11 	ldr	x17, [x16, #3184]
    ab08:	9131c210 	add	x16, x16, #0xc70
    ab0c:	d61f0220 	br	x17

000000000000ab10 <code_108@plt>:
    ab10:	d00000d0 	adrp	x16, 24000 <__FRAME_END__+0xff80>
    ab14:	f9463e11 	ldr	x17, [x16, #3192]
    ab18:	9131e210 	add	x16, x16, #0xc78
    ab1c:	d61f0220 	br	x17

000000000000ab20 <code_519@plt>:
    ab20:	d00000d0 	adrp	x16, 24000 <__FRAME_END__+0xff80>
    ab24:	f9464211 	ldr	x17, [x16, #3200]
    ab28:	91320210 	add	x16, x16, #0xc80
    ab2c:	d61f0220 	br	x17

000000000000ab30 <code_556@plt>:
    ab30:	d00000d0 	adrp	x16, 24000 <__FRAME_END__+0xff80>
    ab34:	f9464611 	ldr	x17, [x16, #3208]
    ab38:	91322210 	add	x16, x16, #0xc88
    ab3c:	d61f0220 	br	x17

000000000000ab40 <code_432@plt>:
    ab40:	d00000d0 	adrp	x16, 24000 <__FRAME_END__+0xff80>
    ab44:	f9464a11 	ldr	x17, [x16, #3216]
    ab48:	91324210 	add	x16, x16, #0xc90
    ab4c:	d61f0220 	br	x17

000000000000ab50 <code_1186@plt>:
    ab50:	d00000d0 	adrp	x16, 24000 <__FRAME_END__+0xff80>
    ab54:	f9464e11 	ldr	x17, [x16, #3224]
    ab58:	91326210 	add	x16, x16, #0xc98
    ab5c:	d61f0220 	br	x17

000000000000ab60 <code_597@plt>:
    ab60:	d00000d0 	adrp	x16, 24000 <__FRAME_END__+0xff80>
    ab64:	f9465211 	ldr	x17, [x16, #3232]
    ab68:	91328210 	add	x16, x16, #0xca0
    ab6c:	d61f0220 	br	x17

000000000000ab70 <code_147@plt>:
    ab70:	d00000d0 	adrp	x16, 24000 <__FRAME_END__+0xff80>
    ab74:	f9465611 	ldr	x17, [x16, #3240]
    ab78:	9132a210 	add	x16, x16, #0xca8
    ab7c:	d61f0220 	br	x17

000000000000ab80 <code_1149@plt>:
    ab80:	d00000d0 	adrp	x16, 24000 <__FRAME_END__+0xff80>
    ab84:	f9465a11 	ldr	x17, [x16, #3248]
    ab88:	9132c210 	add	x16, x16, #0xcb0
    ab8c:	d61f0220 	br	x17

000000000000ab90 <code_430@plt>:
    ab90:	d00000d0 	adrp	x16, 24000 <__FRAME_END__+0xff80>
    ab94:	f9465e11 	ldr	x17, [x16, #3256]
    ab98:	9132e210 	add	x16, x16, #0xcb8
    ab9c:	d61f0220 	br	x17

000000000000aba0 <code_92@plt>:
    aba0:	d00000d0 	adrp	x16, 24000 <__FRAME_END__+0xff80>
    aba4:	f9466211 	ldr	x17, [x16, #3264]
    aba8:	91330210 	add	x16, x16, #0xcc0
    abac:	d61f0220 	br	x17

000000000000abb0 <code_1147@plt>:
    abb0:	d00000d0 	adrp	x16, 24000 <__FRAME_END__+0xff80>
    abb4:	f9466611 	ldr	x17, [x16, #3272]
    abb8:	91332210 	add	x16, x16, #0xcc8
    abbc:	d61f0220 	br	x17

000000000000abc0 <code_182@plt>:
    abc0:	d00000d0 	adrp	x16, 24000 <__FRAME_END__+0xff80>
    abc4:	f9466a11 	ldr	x17, [x16, #3280]
    abc8:	91334210 	add	x16, x16, #0xcd0
    abcc:	d61f0220 	br	x17

000000000000abd0 <code_145@plt>:
    abd0:	d00000d0 	adrp	x16, 24000 <__FRAME_END__+0xff80>
    abd4:	f9466e11 	ldr	x17, [x16, #3288]
    abd8:	91336210 	add	x16, x16, #0xcd8
    abdc:	d61f0220 	br	x17

000000000000abe0 <code_631@plt>:
    abe0:	d00000d0 	adrp	x16, 24000 <__FRAME_END__+0xff80>
    abe4:	f9467211 	ldr	x17, [x16, #3296]
    abe8:	91338210 	add	x16, x16, #0xce0
    abec:	d61f0220 	br	x17

000000000000abf0 <code_1188@plt>:
    abf0:	d00000d0 	adrp	x16, 24000 <__FRAME_END__+0xff80>
    abf4:	f9467611 	ldr	x17, [x16, #3304]
    abf8:	9133a210 	add	x16, x16, #0xce8
    abfc:	d61f0220 	br	x17

000000000000ac00 <code_149@plt>:
    ac00:	d00000d0 	adrp	x16, 24000 <__FRAME_END__+0xff80>
    ac04:	f9467a11 	ldr	x17, [x16, #3312]
    ac08:	9133c210 	add	x16, x16, #0xcf0
    ac0c:	d61f0220 	br	x17

000000000000ac10 <code_186@plt>:
    ac10:	d00000d0 	adrp	x16, 24000 <__FRAME_END__+0xff80>
    ac14:	f9467e11 	ldr	x17, [x16, #3320]
    ac18:	9133e210 	add	x16, x16, #0xcf8
    ac1c:	d61f0220 	br	x17

000000000000ac20 <code_1284@plt>:
    ac20:	d00000d0 	adrp	x16, 24000 <__FRAME_END__+0xff80>
    ac24:	f9468211 	ldr	x17, [x16, #3328]
    ac28:	91340210 	add	x16, x16, #0xd00
    ac2c:	d61f0220 	br	x17

000000000000ac30 <code_684@plt>:
    ac30:	d00000d0 	adrp	x16, 24000 <__FRAME_END__+0xff80>
    ac34:	f9468611 	ldr	x17, [x16, #3336]
    ac38:	91342210 	add	x16, x16, #0xd08
    ac3c:	d61f0220 	br	x17

000000000000ac40 <code_238@plt>:
    ac40:	d00000d0 	adrp	x16, 24000 <__FRAME_END__+0xff80>
    ac44:	f9468a11 	ldr	x17, [x16, #3344]
    ac48:	91344210 	add	x16, x16, #0xd10
    ac4c:	d61f0220 	br	x17

000000000000ac50 <__cxa_finalize@plt>:
    ac50:	d00000d0 	adrp	x16, 24000 <__FRAME_END__+0xff80>
    ac54:	f9468e11 	ldr	x17, [x16, #3352]
    ac58:	91346210 	add	x16, x16, #0xd18
    ac5c:	d61f0220 	br	x17

000000000000ac60 <code_680@plt>:
    ac60:	d00000d0 	adrp	x16, 24000 <__FRAME_END__+0xff80>
    ac64:	f9469211 	ldr	x17, [x16, #3360]
    ac68:	91348210 	add	x16, x16, #0xd20
    ac6c:	d61f0220 	br	x17

000000000000ac70 <code_511@plt>:
    ac70:	d00000d0 	adrp	x16, 24000 <__FRAME_END__+0xff80>
    ac74:	f9469611 	ldr	x17, [x16, #3368]
    ac78:	9134a210 	add	x16, x16, #0xd28
    ac7c:	d61f0220 	br	x17

000000000000ac80 <code_273@plt>:
    ac80:	d00000d0 	adrp	x16, 24000 <__FRAME_END__+0xff80>
    ac84:	f9469a11 	ldr	x17, [x16, #3376]
    ac88:	9134c210 	add	x16, x16, #0xd30
    ac8c:	d61f0220 	br	x17

000000000000ac90 <code_234@plt>:
    ac90:	d00000d0 	adrp	x16, 24000 <__FRAME_END__+0xff80>
    ac94:	f9469e11 	ldr	x17, [x16, #3384]
    ac98:	9134e210 	add	x16, x16, #0xd38
    ac9c:	d61f0220 	br	x17

000000000000aca0 <code_102@plt>:
    aca0:	d00000d0 	adrp	x16, 24000 <__FRAME_END__+0xff80>
    aca4:	f946a211 	ldr	x17, [x16, #3392]
    aca8:	91350210 	add	x16, x16, #0xd40
    acac:	d61f0220 	br	x17

000000000000acb0 <code_271@plt>:
    acb0:	d00000d0 	adrp	x16, 24000 <__FRAME_END__+0xff80>
    acb4:	f946a611 	ldr	x17, [x16, #3400]
    acb8:	91352210 	add	x16, x16, #0xd48
    acbc:	d61f0220 	br	x17

000000000000acc0 <code_550@plt>:
    acc0:	d00000d0 	adrp	x16, 24000 <__FRAME_END__+0xff80>
    acc4:	f946aa11 	ldr	x17, [x16, #3408]
    acc8:	91354210 	add	x16, x16, #0xd50
    accc:	d61f0220 	br	x17

000000000000acd0 <code_513@plt>:
    acd0:	d00000d0 	adrp	x16, 24000 <__FRAME_END__+0xff80>
    acd4:	f946ae11 	ldr	x17, [x16, #3416]
    acd8:	91356210 	add	x16, x16, #0xd58
    acdc:	d61f0220 	br	x17

000000000000ace0 <code_799@plt>:
    ace0:	d00000d0 	adrp	x16, 24000 <__FRAME_END__+0xff80>
    ace4:	f946b211 	ldr	x17, [x16, #3424]
    ace8:	91358210 	add	x16, x16, #0xd60
    acec:	d61f0220 	br	x17

000000000000acf0 <code_711@plt>:
    acf0:	d00000d0 	adrp	x16, 24000 <__FRAME_END__+0xff80>
    acf4:	f946b611 	ldr	x17, [x16, #3432]
    acf8:	9135a210 	add	x16, x16, #0xd68
    acfc:	d61f0220 	br	x17

000000000000ad00 <code_1019@plt>:
    ad00:	d00000d0 	adrp	x16, 24000 <__FRAME_END__+0xff80>
    ad04:	f946ba11 	ldr	x17, [x16, #3440]
    ad08:	9135c210 	add	x16, x16, #0xd70
    ad0c:	d61f0220 	br	x17

000000000000ad10 <code_1421@plt>:
    ad10:	d00000d0 	adrp	x16, 24000 <__FRAME_END__+0xff80>
    ad14:	f946be11 	ldr	x17, [x16, #3448]
    ad18:	9135e210 	add	x16, x16, #0xd78
    ad1c:	d61f0220 	br	x17

000000000000ad20 <code_28@plt>:
    ad20:	d00000d0 	adrp	x16, 24000 <__FRAME_END__+0xff80>
    ad24:	f946c211 	ldr	x17, [x16, #3456]
    ad28:	91360210 	add	x16, x16, #0xd80
    ad2c:	d61f0220 	br	x17

000000000000ad30 <code_26@plt>:
    ad30:	d00000d0 	adrp	x16, 24000 <__FRAME_END__+0xff80>
    ad34:	f946c611 	ldr	x17, [x16, #3464]
    ad38:	91362210 	add	x16, x16, #0xd88
    ad3c:	d61f0220 	br	x17

000000000000ad40 <code_782@plt>:
    ad40:	d00000d0 	adrp	x16, 24000 <__FRAME_END__+0xff80>
    ad44:	f946ca11 	ldr	x17, [x16, #3472]
    ad48:	91364210 	add	x16, x16, #0xd90
    ad4c:	d61f0220 	br	x17

000000000000ad50 <code_1184@plt>:
    ad50:	d00000d0 	adrp	x16, 24000 <__FRAME_END__+0xff80>
    ad54:	f946ce11 	ldr	x17, [x16, #3480]
    ad58:	91366210 	add	x16, x16, #0xd98
    ad5c:	d61f0220 	br	x17

000000000000ad60 <code_1015@plt>:
    ad60:	d00000d0 	adrp	x16, 24000 <__FRAME_END__+0xff80>
    ad64:	f946d211 	ldr	x17, [x16, #3488]
    ad68:	91368210 	add	x16, x16, #0xda0
    ad6c:	d61f0220 	br	x17

000000000000ad70 <code_1011@plt>:
    ad70:	d00000d0 	adrp	x16, 24000 <__FRAME_END__+0xff80>
    ad74:	f946d611 	ldr	x17, [x16, #3496]
    ad78:	9136a210 	add	x16, x16, #0xda8
    ad7c:	d61f0220 	br	x17

000000000000ad80 <code_1013@plt>:
    ad80:	d00000d0 	adrp	x16, 24000 <__FRAME_END__+0xff80>
    ad84:	f946da11 	ldr	x17, [x16, #3504]
    ad88:	9136c210 	add	x16, x16, #0xdb0
    ad8c:	d61f0220 	br	x17

000000000000ad90 <code_391@plt>:
    ad90:	d00000d0 	adrp	x16, 24000 <__FRAME_END__+0xff80>
    ad94:	f946de11 	ldr	x17, [x16, #3512]
    ad98:	9136e210 	add	x16, x16, #0xdb8
    ad9c:	d61f0220 	br	x17

000000000000ada0 <code_317@plt>:
    ada0:	d00000d0 	adrp	x16, 24000 <__FRAME_END__+0xff80>
    ada4:	f946e211 	ldr	x17, [x16, #3520]
    ada8:	91370210 	add	x16, x16, #0xdc0
    adac:	d61f0220 	br	x17

000000000000adb0 <code_315@plt>:
    adb0:	d00000d0 	adrp	x16, 24000 <__FRAME_END__+0xff80>
    adb4:	f946e611 	ldr	x17, [x16, #3528]
    adb8:	91372210 	add	x16, x16, #0xdc8
    adbc:	d61f0220 	br	x17

000000000000adc0 <code_230@plt>:
    adc0:	d00000d0 	adrp	x16, 24000 <__FRAME_END__+0xff80>
    adc4:	f946ea11 	ldr	x17, [x16, #3536]
    adc8:	91374210 	add	x16, x16, #0xdd0
    adcc:	d61f0220 	br	x17

000000000000add0 <code_866@plt>:
    add0:	d00000d0 	adrp	x16, 24000 <__FRAME_END__+0xff80>
    add4:	f946ee11 	ldr	x17, [x16, #3544]
    add8:	91376210 	add	x16, x16, #0xdd8
    addc:	d61f0220 	br	x17

000000000000ade0 <code_1332@plt>:
    ade0:	d00000d0 	adrp	x16, 24000 <__FRAME_END__+0xff80>
    ade4:	f946f211 	ldr	x17, [x16, #3552]
    ade8:	91378210 	add	x16, x16, #0xde0
    adec:	d61f0220 	br	x17

000000000000adf0 <code_834@plt>:
    adf0:	d00000d0 	adrp	x16, 24000 <__FRAME_END__+0xff80>
    adf4:	f946f611 	ldr	x17, [x16, #3560]
    adf8:	9137a210 	add	x16, x16, #0xde8
    adfc:	d61f0220 	br	x17

000000000000ae00 <code_20@plt>:
    ae00:	d00000d0 	adrp	x16, 24000 <__FRAME_END__+0xff80>
    ae04:	f946fa11 	ldr	x17, [x16, #3568]
    ae08:	9137c210 	add	x16, x16, #0xdf0
    ae0c:	d61f0220 	br	x17

000000000000ae10 <code_22@plt>:
    ae10:	d00000d0 	adrp	x16, 24000 <__FRAME_END__+0xff80>
    ae14:	f946fe11 	ldr	x17, [x16, #3576]
    ae18:	9137e210 	add	x16, x16, #0xdf8
    ae1c:	d61f0220 	br	x17

000000000000ae20 <code_1082@plt>:
    ae20:	d00000d0 	adrp	x16, 24000 <__FRAME_END__+0xff80>
    ae24:	f9470211 	ldr	x17, [x16, #3584]
    ae28:	91380210 	add	x16, x16, #0xe00
    ae2c:	d61f0220 	br	x17

000000000000ae30 <code_871@plt>:
    ae30:	d00000d0 	adrp	x16, 24000 <__FRAME_END__+0xff80>
    ae34:	f9470611 	ldr	x17, [x16, #3592]
    ae38:	91382210 	add	x16, x16, #0xe08
    ae3c:	d61f0220 	br	x17

000000000000ae40 <code_873@plt>:
    ae40:	d00000d0 	adrp	x16, 24000 <__FRAME_END__+0xff80>
    ae44:	f9470a11 	ldr	x17, [x16, #3600]
    ae48:	91384210 	add	x16, x16, #0xe10
    ae4c:	d61f0220 	br	x17

000000000000ae50 <code_1260@plt>:
    ae50:	d00000d0 	adrp	x16, 24000 <__FRAME_END__+0xff80>
    ae54:	f9470e11 	ldr	x17, [x16, #3608]
    ae58:	91386210 	add	x16, x16, #0xe18
    ae5c:	d61f0220 	br	x17

000000000000ae60 <code_1379@plt>:
    ae60:	d00000d0 	adrp	x16, 24000 <__FRAME_END__+0xff80>
    ae64:	f9471211 	ldr	x17, [x16, #3616]
    ae68:	91388210 	add	x16, x16, #0xe20
    ae6c:	d61f0220 	br	x17

000000000000ae70 <code_1338@plt>:
    ae70:	d00000d0 	adrp	x16, 24000 <__FRAME_END__+0xff80>
    ae74:	f9471611 	ldr	x17, [x16, #3624]
    ae78:	9138a210 	add	x16, x16, #0xe28
    ae7c:	d61f0220 	br	x17

000000000000ae80 <code_1221@plt>:
    ae80:	d00000d0 	adrp	x16, 24000 <__FRAME_END__+0xff80>
    ae84:	f9471a11 	ldr	x17, [x16, #3632]
    ae88:	9138c210 	add	x16, x16, #0xe30
    ae8c:	d61f0220 	br	x17

000000000000ae90 <code_429@plt>:
    ae90:	d00000d0 	adrp	x16, 24000 <__FRAME_END__+0xff80>
    ae94:	f9471e11 	ldr	x17, [x16, #3640]
    ae98:	9138e210 	add	x16, x16, #0xe38
    ae9c:	d61f0220 	br	x17

000000000000aea0 <code_466@plt>:
    aea0:	d00000d0 	adrp	x16, 24000 <__FRAME_END__+0xff80>
    aea4:	f9472211 	ldr	x17, [x16, #3648]
    aea8:	91390210 	add	x16, x16, #0xe40
    aeac:	d61f0220 	br	x17

000000000000aeb0 <code_1084@plt>:
    aeb0:	d00000d0 	adrp	x16, 24000 <__FRAME_END__+0xff80>
    aeb4:	f9472611 	ldr	x17, [x16, #3656]
    aeb8:	91392210 	add	x16, x16, #0xe48
    aebc:	d61f0220 	br	x17

000000000000aec0 <code_1373@plt>:
    aec0:	d00000d0 	adrp	x16, 24000 <__FRAME_END__+0xff80>
    aec4:	f9472a11 	ldr	x17, [x16, #3664]
    aec8:	91394210 	add	x16, x16, #0xe50
    aecc:	d61f0220 	br	x17

000000000000aed0 <code_427@plt>:
    aed0:	d00000d0 	adrp	x16, 24000 <__FRAME_END__+0xff80>
    aed4:	f9472e11 	ldr	x17, [x16, #3672]
    aed8:	91396210 	add	x16, x16, #0xe58
    aedc:	d61f0220 	br	x17

000000000000aee0 <code_313@plt>:
    aee0:	d00000d0 	adrp	x16, 24000 <__FRAME_END__+0xff80>
    aee4:	f9473211 	ldr	x17, [x16, #3680]
    aee8:	91398210 	add	x16, x16, #0xe60
    aeec:	d61f0220 	br	x17

000000000000aef0 <code_311@plt>:
    aef0:	d00000d0 	adrp	x16, 24000 <__FRAME_END__+0xff80>
    aef4:	f9473611 	ldr	x17, [x16, #3688]
    aef8:	9139a210 	add	x16, x16, #0xe68
    aefc:	d61f0220 	br	x17

000000000000af00 <code_1377@plt>:
    af00:	d00000d0 	adrp	x16, 24000 <__FRAME_END__+0xff80>
    af04:	f9473a11 	ldr	x17, [x16, #3696]
    af08:	9139c210 	add	x16, x16, #0xe70
    af0c:	d61f0220 	br	x17

000000000000af10 <code_1225@plt>:
    af10:	d00000d0 	adrp	x16, 24000 <__FRAME_END__+0xff80>
    af14:	f9473e11 	ldr	x17, [x16, #3704]
    af18:	9139e210 	add	x16, x16, #0xe78
    af1c:	d61f0220 	br	x17

000000000000af20 <code_921@plt>:
    af20:	d00000d0 	adrp	x16, 24000 <__FRAME_END__+0xff80>
    af24:	f9474211 	ldr	x17, [x16, #3712]
    af28:	913a0210 	add	x16, x16, #0xe80
    af2c:	d61f0220 	br	x17

000000000000af30 <code_1418@plt>:
    af30:	d00000d0 	adrp	x16, 24000 <__FRAME_END__+0xff80>
    af34:	f9474611 	ldr	x17, [x16, #3720]
    af38:	913a2210 	add	x16, x16, #0xe88
    af3c:	d61f0220 	br	x17

000000000000af40 <code_1451@plt>:
    af40:	d00000d0 	adrp	x16, 24000 <__FRAME_END__+0xff80>
    af44:	f9474a11 	ldr	x17, [x16, #3728]
    af48:	913a4210 	add	x16, x16, #0xe90
    af4c:	d61f0220 	br	x17

000000000000af50 <code_1049@plt>:
    af50:	d00000d0 	adrp	x16, 24000 <__FRAME_END__+0xff80>
    af54:	f9474e11 	ldr	x17, [x16, #3736]
    af58:	913a6210 	add	x16, x16, #0xe98
    af5c:	d61f0220 	br	x17

000000000000af60 <code_1414@plt>:
    af60:	d00000d0 	adrp	x16, 24000 <__FRAME_END__+0xff80>
    af64:	f9475211 	ldr	x17, [x16, #3744]
    af68:	913a8210 	add	x16, x16, #0xea0
    af6c:	d61f0220 	br	x17

000000000000af70 <code_953@plt>:
    af70:	d00000d0 	adrp	x16, 24000 <__FRAME_END__+0xff80>
    af74:	f9475611 	ldr	x17, [x16, #3752]
    af78:	913aa210 	add	x16, x16, #0xea8
    af7c:	d61f0220 	br	x17

000000000000af80 <code_1160@plt>:
    af80:	d00000d0 	adrp	x16, 24000 <__FRAME_END__+0xff80>
    af84:	f9475a11 	ldr	x17, [x16, #3760]
    af88:	913ac210 	add	x16, x16, #0xeb0
    af8c:	d61f0220 	br	x17

000000000000af90 <code_990@plt>:
    af90:	d00000d0 	adrp	x16, 24000 <__FRAME_END__+0xff80>
    af94:	f9475e11 	ldr	x17, [x16, #3768]
    af98:	913ae210 	add	x16, x16, #0xeb8
    af9c:	d61f0220 	br	x17

000000000000afa0 <code_157@plt>:
    afa0:	d00000d0 	adrp	x16, 24000 <__FRAME_END__+0xff80>
    afa4:	f9476211 	ldr	x17, [x16, #3776]
    afa8:	913b0210 	add	x16, x16, #0xec0
    afac:	d61f0220 	br	x17

000000000000afb0 <code_568@plt>:
    afb0:	d00000d0 	adrp	x16, 24000 <__FRAME_END__+0xff80>
    afb4:	f9476611 	ldr	x17, [x16, #3784]
    afb8:	913b2210 	add	x16, x16, #0xec8
    afbc:	d61f0220 	br	x17

000000000000afc0 <code_1457@plt>:
    afc0:	d00000d0 	adrp	x16, 24000 <__FRAME_END__+0xff80>
    afc4:	f9476a11 	ldr	x17, [x16, #3792]
    afc8:	913b4210 	add	x16, x16, #0xed0
    afcc:	d61f0220 	br	x17

000000000000afd0 <code_1121@plt>:
    afd0:	d00000d0 	adrp	x16, 24000 <__FRAME_END__+0xff80>
    afd4:	f9476e11 	ldr	x17, [x16, #3800]
    afd8:	913b6210 	add	x16, x16, #0xed8
    afdc:	d61f0220 	br	x17

000000000000afe0 <code_155@plt>:
    afe0:	d00000d0 	adrp	x16, 24000 <__FRAME_END__+0xff80>
    afe4:	f9477211 	ldr	x17, [x16, #3808]
    afe8:	913b8210 	add	x16, x16, #0xee0
    afec:	d61f0220 	br	x17

000000000000aff0 <code_566@plt>:
    aff0:	d00000d0 	adrp	x16, 24000 <__FRAME_END__+0xff80>
    aff4:	f9477611 	ldr	x17, [x16, #3816]
    aff8:	913ba210 	add	x16, x16, #0xee8
    affc:	d61f0220 	br	x17

000000000000b000 <code_67@plt>:
    b000:	b00000d0 	adrp	x16, 24000 <__FRAME_END__+0xff80>
    b004:	f9477a11 	ldr	x17, [x16, #3824]
    b008:	913bc210 	add	x16, x16, #0xef0
    b00c:	d61f0220 	br	x17

000000000000b010 <code_153@plt>:
    b010:	b00000d0 	adrp	x16, 24000 <__FRAME_END__+0xff80>
    b014:	f9477e11 	ldr	x17, [x16, #3832]
    b018:	913be210 	add	x16, x16, #0xef8
    b01c:	d61f0220 	br	x17

000000000000b020 <code_114@plt>:
    b020:	b00000d0 	adrp	x16, 24000 <__FRAME_END__+0xff80>
    b024:	f9478211 	ldr	x17, [x16, #3840]
    b028:	913c0210 	add	x16, x16, #0xf00
    b02c:	d61f0220 	br	x17

000000000000b030 <code_529@plt>:
    b030:	b00000d0 	adrp	x16, 24000 <__FRAME_END__+0xff80>
    b034:	f9478611 	ldr	x17, [x16, #3848]
    b038:	913c2210 	add	x16, x16, #0xf08
    b03c:	d61f0220 	br	x17

000000000000b040 <code_527@plt>:
    b040:	b00000d0 	adrp	x16, 24000 <__FRAME_END__+0xff80>
    b044:	f9478a11 	ldr	x17, [x16, #3856]
    b048:	913c4210 	add	x16, x16, #0xf10
    b04c:	d61f0220 	br	x17

000000000000b050 <code_112@plt>:
    b050:	b00000d0 	adrp	x16, 24000 <__FRAME_END__+0xff80>
    b054:	f9478e11 	ldr	x17, [x16, #3864]
    b058:	913c6210 	add	x16, x16, #0xf18
    b05c:	d61f0220 	br	x17

000000000000b060 <code_562@plt>:
    b060:	b00000d0 	adrp	x16, 24000 <__FRAME_END__+0xff80>
    b064:	f9479211 	ldr	x17, [x16, #3872]
    b068:	913c8210 	add	x16, x16, #0xf20
    b06c:	d61f0220 	br	x17

000000000000b070 <code_460@plt>:
    b070:	b00000d0 	adrp	x16, 24000 <__FRAME_END__+0xff80>
    b074:	f9479611 	ldr	x17, [x16, #3880]
    b078:	913ca210 	add	x16, x16, #0xf28
    b07c:	d61f0220 	br	x17

000000000000b080 <code_61@plt>:
    b080:	b00000d0 	adrp	x16, 24000 <__FRAME_END__+0xff80>
    b084:	f9479a11 	ldr	x17, [x16, #3888]
    b088:	913cc210 	add	x16, x16, #0xf30
    b08c:	d61f0220 	br	x17

000000000000b090 <code_421@plt>:
    b090:	b00000d0 	adrp	x16, 24000 <__FRAME_END__+0xff80>
    b094:	f9479e11 	ldr	x17, [x16, #3896]
    b098:	913ce210 	add	x16, x16, #0xf38
    b09c:	d61f0220 	br	x17

000000000000b0a0 <code_1175@plt>:
    b0a0:	b00000d0 	adrp	x16, 24000 <__FRAME_END__+0xff80>
    b0a4:	f947a211 	ldr	x17, [x16, #3904]
    b0a8:	913d0210 	add	x16, x16, #0xf40
    b0ac:	d61f0220 	br	x17

000000000000b0b0 <code_639@plt>:
    b0b0:	b00000d0 	adrp	x16, 24000 <__FRAME_END__+0xff80>
    b0b4:	f947a611 	ldr	x17, [x16, #3912]
    b0b8:	913d2210 	add	x16, x16, #0xf48
    b0bc:	d61f0220 	br	x17

000000000000b0c0 <code_676@plt>:
    b0c0:	b00000d0 	adrp	x16, 24000 <__FRAME_END__+0xff80>
    b0c4:	f947aa11 	ldr	x17, [x16, #3920]
    b0c8:	913d4210 	add	x16, x16, #0xf50
    b0cc:	d61f0220 	br	x17

000000000000b0d0 <code_159@plt>:
    b0d0:	b00000d0 	adrp	x16, 24000 <__FRAME_END__+0xff80>
    b0d4:	f947ae11 	ldr	x17, [x16, #3928]
    b0d8:	913d6210 	add	x16, x16, #0xf58
    b0dc:	d61f0220 	br	x17

000000000000b0e0 <code_620@plt>:
    b0e0:	b00000d0 	adrp	x16, 24000 <__FRAME_END__+0xff80>
    b0e4:	f947b211 	ldr	x17, [x16, #3936]
    b0e8:	913d8210 	add	x16, x16, #0xf60
    b0ec:	d61f0220 	br	x17

000000000000b0f0 <code_637@plt>:
    b0f0:	b00000d0 	adrp	x16, 24000 <__FRAME_END__+0xff80>
    b0f4:	f947b611 	ldr	x17, [x16, #3944]
    b0f8:	913da210 	add	x16, x16, #0xf68
    b0fc:	d61f0220 	br	x17

000000000000b100 <code_674@plt>:
    b100:	b00000d0 	adrp	x16, 24000 <__FRAME_END__+0xff80>
    b104:	f947ba11 	ldr	x17, [x16, #3952]
    b108:	913dc210 	add	x16, x16, #0xf70
    b10c:	d61f0220 	br	x17

000000000000b110 <code_635@plt>:
    b110:	b00000d0 	adrp	x16, 24000 <__FRAME_END__+0xff80>
    b114:	f947be11 	ldr	x17, [x16, #3960]
    b118:	913de210 	add	x16, x16, #0xf78
    b11c:	d61f0220 	br	x17

000000000000b120 <code_624@plt>:
    b120:	b00000d0 	adrp	x16, 24000 <__FRAME_END__+0xff80>
    b124:	f947c211 	ldr	x17, [x16, #3968]
    b128:	913e0210 	add	x16, x16, #0xf80
    b12c:	d61f0220 	br	x17

000000000000b130 <code_1313@plt>:
    b130:	b00000d0 	adrp	x16, 24000 <__FRAME_END__+0xff80>
    b134:	f947c611 	ldr	x17, [x16, #3976]
    b138:	913e2210 	add	x16, x16, #0xf88
    b13c:	d61f0220 	br	x17

000000000000b140 <code_1179@plt>:
    b140:	b00000d0 	adrp	x16, 24000 <__FRAME_END__+0xff80>
    b144:	f947ca11 	ldr	x17, [x16, #3984]
    b148:	913e4210 	add	x16, x16, #0xf90
    b14c:	d61f0220 	br	x17

000000000000b150 <code_261@plt>:
    b150:	b00000d0 	adrp	x16, 24000 <__FRAME_END__+0xff80>
    b154:	f947ce11 	ldr	x17, [x16, #3992]
    b158:	913e6210 	add	x16, x16, #0xf98
    b15c:	d61f0220 	br	x17

000000000000b160 <code_226@plt>:
    b160:	b00000d0 	adrp	x16, 24000 <__FRAME_END__+0xff80>
    b164:	f947d211 	ldr	x17, [x16, #4000]
    b168:	913e8210 	add	x16, x16, #0xfa0
    b16c:	d61f0220 	br	x17

000000000000b170 <code_224@plt>:
    b170:	b00000d0 	adrp	x16, 24000 <__FRAME_END__+0xff80>
    b174:	f947d611 	ldr	x17, [x16, #4008]
    b178:	913ea210 	add	x16, x16, #0xfa8
    b17c:	d61f0220 	br	x17

000000000000b180 <code_1258@plt>:
    b180:	b00000d0 	adrp	x16, 24000 <__FRAME_END__+0xff80>
    b184:	f947da11 	ldr	x17, [x16, #4016]
    b188:	913ec210 	add	x16, x16, #0xfb0
    b18c:	d61f0220 	br	x17

000000000000b190 <code_758@plt>:
    b190:	b00000d0 	adrp	x16, 24000 <__FRAME_END__+0xff80>
    b194:	f947de11 	ldr	x17, [x16, #4024]
    b198:	913ee210 	add	x16, x16, #0xfb8
    b19c:	d61f0220 	br	x17

000000000000b1a0 <code_720@plt>:
    b1a0:	b00000d0 	adrp	x16, 24000 <__FRAME_END__+0xff80>
    b1a4:	f947e211 	ldr	x17, [x16, #4032]
    b1a8:	913f0210 	add	x16, x16, #0xfc0
    b1ac:	d61f0220 	br	x17

000000000000b1b0 <code_1026@plt>:
    b1b0:	b00000d0 	adrp	x16, 24000 <__FRAME_END__+0xff80>
    b1b4:	f947e611 	ldr	x17, [x16, #4040]
    b1b8:	913f2210 	add	x16, x16, #0xfc8
    b1bc:	d61f0220 	br	x17

000000000000b1c0 <code_523@plt>:
    b1c0:	b00000d0 	adrp	x16, 24000 <__FRAME_END__+0xff80>
    b1c4:	f947ea11 	ldr	x17, [x16, #4048]
    b1c8:	913f4210 	add	x16, x16, #0xfd0
    b1cc:	d61f0220 	br	x17

000000000000b1d0 <code_1067@plt>:
    b1d0:	b00000d0 	adrp	x16, 24000 <__FRAME_END__+0xff80>
    b1d4:	f947ee11 	ldr	x17, [x16, #4056]
    b1d8:	913f6210 	add	x16, x16, #0xfd8
    b1dc:	d61f0220 	br	x17

000000000000b1e0 <code_756@plt>:
    b1e0:	b00000d0 	adrp	x16, 24000 <__FRAME_END__+0xff80>
    b1e4:	f947f211 	ldr	x17, [x16, #4064]
    b1e8:	913f8210 	add	x16, x16, #0xfe0
    b1ec:	d61f0220 	br	x17

000000000000b1f0 <code_265@plt>:
    b1f0:	b00000d0 	adrp	x16, 24000 <__FRAME_END__+0xff80>
    b1f4:	f947f611 	ldr	x17, [x16, #4072]
    b1f8:	913fa210 	add	x16, x16, #0xfe8
    b1fc:	d61f0220 	br	x17

000000000000b200 <code_754@plt>:
    b200:	b00000d0 	adrp	x16, 24000 <__FRAME_END__+0xff80>
    b204:	f947fa11 	ldr	x17, [x16, #4080]
    b208:	913fc210 	add	x16, x16, #0xff0
    b20c:	d61f0220 	br	x17

000000000000b210 <code_719@plt>:
    b210:	b00000d0 	adrp	x16, 24000 <__FRAME_END__+0xff80>
    b214:	f947fe11 	ldr	x17, [x16, #4088]
    b218:	913fe210 	add	x16, x16, #0xff8
    b21c:	d61f0220 	br	x17

000000000000b220 <code_1063@plt>:
    b220:	d00000d0 	adrp	x16, 25000 <code_1063@Base>
    b224:	f9400211 	ldr	x17, [x16]
    b228:	91000210 	add	x16, x16, #0x0
    b22c:	d61f0220 	br	x17

000000000000b230 <code_761@plt>:
    b230:	d00000d0 	adrp	x16, 25000 <code_1063@Base>
    b234:	f9400611 	ldr	x17, [x16, #8]
    b238:	91002210 	add	x16, x16, #0x8
    b23c:	d61f0220 	br	x17

000000000000b240 <code_717@plt>:
    b240:	d00000d0 	adrp	x16, 25000 <code_1063@Base>
    b244:	f9400a11 	ldr	x17, [x16, #16]
    b248:	91004210 	add	x16, x16, #0x10
    b24c:	d61f0220 	br	x17

000000000000b250 <code_269@plt>:
    b250:	d00000d0 	adrp	x16, 25000 <code_1063@Base>
    b254:	f9400e11 	ldr	x17, [x16, #24]
    b258:	91006210 	add	x16, x16, #0x18
    b25c:	d61f0220 	br	x17

000000000000b260 <code_797@plt>:
    b260:	d00000d0 	adrp	x16, 25000 <code_1063@Base>
    b264:	f9401211 	ldr	x17, [x16, #32]
    b268:	91008210 	add	x16, x16, #0x20
    b26c:	d61f0220 	br	x17

000000000000b270 <code_4@plt>:
    b270:	d00000d0 	adrp	x16, 25000 <code_1063@Base>
    b274:	f9401611 	ldr	x17, [x16, #40]
    b278:	9100a210 	add	x16, x16, #0x28
    b27c:	d61f0220 	br	x17

000000000000b280 <code_328@plt>:
    b280:	d00000d0 	adrp	x16, 25000 <code_1063@Base>
    b284:	f9401a11 	ldr	x17, [x16, #48]
    b288:	9100c210 	add	x16, x16, #0x30
    b28c:	d61f0220 	br	x17

000000000000b290 <code_326@plt>:
    b290:	d00000d0 	adrp	x16, 25000 <code_1063@Base>
    b294:	f9401e11 	ldr	x17, [x16, #56]
    b298:	9100e210 	add	x16, x16, #0x38
    b29c:	d61f0220 	br	x17

000000000000b2a0 <code_222@plt>:
    b2a0:	d00000d0 	adrp	x16, 25000 <code_1063@Base>
    b2a4:	f9402211 	ldr	x17, [x16, #64]
    b2a8:	91010210 	add	x16, x16, #0x40
    b2ac:	d61f0220 	br	x17

000000000000b2b0 <code_829@plt>:
    b2b0:	d00000d0 	adrp	x16, 25000 <code_1063@Base>
    b2b4:	f9402611 	ldr	x17, [x16, #72]
    b2b8:	91012210 	add	x16, x16, #0x48
    b2bc:	d61f0220 	br	x17

000000000000b2c0 <code_898@plt>:
    b2c0:	d00000d0 	adrp	x16, 25000 <code_1063@Base>
    b2c4:	f9402a11 	ldr	x17, [x16, #80]
    b2c8:	91014210 	add	x16, x16, #0x50
    b2cc:	d61f0220 	br	x17

000000000000b2d0 <code_1114@plt>:
    b2d0:	d00000d0 	adrp	x16, 25000 <code_1063@Base>
    b2d4:	f9402e11 	ldr	x17, [x16, #88]
    b2d8:	91016210 	add	x16, x16, #0x58
    b2dc:	d61f0220 	br	x17

000000000000b2e0 <code_369@plt>:
    b2e0:	d00000d0 	adrp	x16, 25000 <code_1063@Base>
    b2e4:	f9403211 	ldr	x17, [x16, #96]
    b2e8:	91018210 	add	x16, x16, #0x60
    b2ec:	d61f0220 	br	x17

000000000000b2f0 <code_220@plt>:
    b2f0:	d00000d0 	adrp	x16, 25000 <code_1063@Base>
    b2f4:	f9403611 	ldr	x17, [x16, #104]
    b2f8:	9101a210 	add	x16, x16, #0x68
    b2fc:	d61f0220 	br	x17

000000000000b300 <code_827@plt>:
    b300:	d00000d0 	adrp	x16, 25000 <code_1063@Base>
    b304:	f9403a11 	ldr	x17, [x16, #112]
    b308:	9101c210 	add	x16, x16, #0x70
    b30c:	d61f0220 	br	x17

000000000000b310 <code_367@plt>:
    b310:	d00000d0 	adrp	x16, 25000 <code_1063@Base>
    b314:	f9403e11 	ldr	x17, [x16, #120]
    b318:	9101e210 	add	x16, x16, #0x78
    b31c:	d61f0220 	br	x17

000000000000b320 <code_1321@plt>:
    b320:	d00000d0 	adrp	x16, 25000 <code_1063@Base>
    b324:	f9404211 	ldr	x17, [x16, #128]
    b328:	91020210 	add	x16, x16, #0x80
    b32c:	d61f0220 	br	x17

000000000000b330 <code_825@plt>:
    b330:	d00000d0 	adrp	x16, 25000 <code_1063@Base>
    b334:	f9404611 	ldr	x17, [x16, #136]
    b338:	91022210 	add	x16, x16, #0x88
    b33c:	d61f0220 	br	x17

000000000000b340 <code_851@plt>:
    b340:	d00000d0 	adrp	x16, 25000 <code_1063@Base>
    b344:	f9404a11 	ldr	x17, [x16, #144]
    b348:	91024210 	add	x16, x16, #0x90
    b34c:	d61f0220 	br	x17

000000000000b350 <code_814@plt>:
    b350:	d00000d0 	adrp	x16, 25000 <code_1063@Base>
    b354:	f9404e11 	ldr	x17, [x16, #152]
    b358:	91026210 	add	x16, x16, #0x98
    b35c:	d61f0220 	br	x17

000000000000b360 <code_2@plt>:
    b360:	d00000d0 	adrp	x16, 25000 <code_1063@Base>
    b364:	f9405211 	ldr	x17, [x16, #160]
    b368:	91028210 	add	x16, x16, #0xa0
    b36c:	d61f0220 	br	x17

000000000000b370 <code_1360@plt>:
    b370:	d00000d0 	adrp	x16, 25000 <code_1063@Base>
    b374:	f9405611 	ldr	x17, [x16, #168]
    b378:	9102a210 	add	x16, x16, #0xa8
    b37c:	d61f0220 	br	x17

000000000000b380 <code_823@plt>:
    b380:	d00000d0 	adrp	x16, 25000 <code_1063@Base>
    b384:	f9405a11 	ldr	x17, [x16, #176]
    b388:	9102c210 	add	x16, x16, #0xb0
    b38c:	d61f0220 	br	x17

000000000000b390 <code_33@plt>:
    b390:	d00000d0 	adrp	x16, 25000 <code_1063@Base>
    b394:	f9405e11 	ldr	x17, [x16, #184]
    b398:	9102e210 	add	x16, x16, #0xb8
    b39c:	d61f0220 	br	x17

000000000000b3a0 <code_1093@plt>:
    b3a0:	d00000d0 	adrp	x16, 25000 <code_1063@Base>
    b3a4:	f9406211 	ldr	x17, [x16, #192]
    b3a8:	91030210 	add	x16, x16, #0xc0
    b3ac:	d61f0220 	br	x17

000000000000b3b0 <code_1232@plt>:
    b3b0:	d00000d0 	adrp	x16, 25000 <code_1063@Base>
    b3b4:	f9406611 	ldr	x17, [x16, #200]
    b3b8:	91032210 	add	x16, x16, #0xc8
    b3bc:	d61f0220 	br	x17

000000000000b3c0 <code_862@plt>:
    b3c0:	d00000d0 	adrp	x16, 25000 <code_1063@Base>
    b3c4:	f9406a11 	ldr	x17, [x16, #208]
    b3c8:	91034210 	add	x16, x16, #0xd0
    b3cc:	d61f0220 	br	x17

000000000000b3d0 <code_864@plt>:
    b3d0:	d00000d0 	adrp	x16, 25000 <code_1063@Base>
    b3d4:	f9406e11 	ldr	x17, [x16, #216]
    b3d8:	91036210 	add	x16, x16, #0xd8
    b3dc:	d61f0220 	br	x17

000000000000b3e0 <code_1362@plt>:
    b3e0:	d00000d0 	adrp	x16, 25000 <code_1063@Base>
    b3e4:	f9407211 	ldr	x17, [x16, #224]
    b3e8:	91038210 	add	x16, x16, #0xe0
    b3ec:	d61f0220 	br	x17

000000000000b3f0 <code_457@plt>:
    b3f0:	d00000d0 	adrp	x16, 25000 <code_1063@Base>
    b3f4:	f9407611 	ldr	x17, [x16, #232]
    b3f8:	9103a210 	add	x16, x16, #0xe8
    b3fc:	d61f0220 	br	x17

000000000000b400 <code_1230@plt>:
    b400:	d00000d0 	adrp	x16, 25000 <code_1063@Base>
    b404:	f9407a11 	ldr	x17, [x16, #240]
    b408:	9103c210 	add	x16, x16, #0xf0
    b40c:	d61f0220 	br	x17

000000000000b410 <code_1097@plt>:
    b410:	d00000d0 	adrp	x16, 25000 <code_1063@Base>
    b414:	f9407e11 	ldr	x17, [x16, #248]
    b418:	9103e210 	add	x16, x16, #0xf8
    b41c:	d61f0220 	br	x17

000000000000b420 <code_860@plt>:
    b420:	d00000d0 	adrp	x16, 25000 <code_1063@Base>
    b424:	f9408211 	ldr	x17, [x16, #256]
    b428:	91040210 	add	x16, x16, #0x100
    b42c:	d61f0220 	br	x17

000000000000b430 <code_1095@plt>:
    b430:	d00000d0 	adrp	x16, 25000 <code_1063@Base>
    b434:	f9408611 	ldr	x17, [x16, #264]
    b438:	91042210 	add	x16, x16, #0x108
    b43c:	d61f0220 	br	x17

000000000000b440 <code_492@plt>:
    b440:	d00000d0 	adrp	x16, 25000 <code_1063@Base>
    b444:	f9408a11 	ldr	x17, [x16, #272]
    b448:	91044210 	add	x16, x16, #0x110
    b44c:	d61f0220 	br	x17

000000000000b450 <code_418@plt>:
    b450:	d00000d0 	adrp	x16, 25000 <code_1063@Base>
    b454:	f9408e11 	ldr	x17, [x16, #280]
    b458:	91046210 	add	x16, x16, #0x118
    b45c:	d61f0220 	br	x17

000000000000b460 <code_416@plt>:
    b460:	d00000d0 	adrp	x16, 25000 <code_1063@Base>
    b464:	f9409211 	ldr	x17, [x16, #288]
    b468:	91048210 	add	x16, x16, #0x120
    b46c:	d61f0220 	br	x17

000000000000b470 <code_451@plt>:
    b470:	d00000d0 	adrp	x16, 25000 <code_1063@Base>
    b474:	f9409611 	ldr	x17, [x16, #296]
    b478:	9104a210 	add	x16, x16, #0x128
    b47c:	d61f0220 	br	x17

000000000000b480 <code_1056@plt>:
    b480:	d00000d0 	adrp	x16, 25000 <code_1063@Base>
    b484:	f9409a11 	ldr	x17, [x16, #304]
    b488:	9104c210 	add	x16, x16, #0x130
    b48c:	d61f0220 	br	x17

000000000000b490 <code_1423@plt>:
    b490:	d00000d0 	adrp	x16, 25000 <code_1063@Base>
    b494:	f9409e11 	ldr	x17, [x16, #312]
    b498:	9104e210 	add	x16, x16, #0x138
    b49c:	d61f0220 	br	x17

000000000000b4a0 <code_1368@plt>:
    b4a0:	d00000d0 	adrp	x16, 25000 <code_1063@Base>
    b4a4:	f940a211 	ldr	x17, [x16, #320]
    b4a8:	91050210 	add	x16, x16, #0x140
    b4ac:	d61f0220 	br	x17

000000000000b4b0 <code_320@plt>:
    b4b0:	d00000d0 	adrp	x16, 25000 <code_1063@Base>
    b4b4:	f940a611 	ldr	x17, [x16, #328]
    b4b8:	91052210 	add	x16, x16, #0x148
    b4bc:	d61f0220 	br	x17

000000000000b4c0 <code_1234@plt>:
    b4c0:	d00000d0 	adrp	x16, 25000 <code_1063@Base>
    b4c4:	f940aa11 	ldr	x17, [x16, #336]
    b4c8:	91054210 	add	x16, x16, #0x150
    b4cc:	d61f0220 	br	x17

000000000000b4d0 <code_929@plt>:
    b4d0:	d00000d0 	adrp	x16, 25000 <code_1063@Base>
    b4d4:	f940ae11 	ldr	x17, [x16, #344]
    b4d8:	91056210 	add	x16, x16, #0x158
    b4dc:	d61f0220 	br	x17

000000000000b4e0 <code_498@plt>:
    b4e0:	d00000d0 	adrp	x16, 25000 <code_1063@Base>
    b4e4:	f940b211 	ldr	x17, [x16, #352]
    b4e8:	91058210 	add	x16, x16, #0x160
    b4ec:	d61f0220 	br	x17

000000000000b4f0 <code_1099@plt>:
    b4f0:	d00000d0 	adrp	x16, 25000 <code_1063@Base>
    b4f4:	f940b611 	ldr	x17, [x16, #360]
    b4f8:	9105a210 	add	x16, x16, #0x168
    b4fc:	d61f0220 	br	x17

000000000000b500 <code_927@plt>:
    b500:	d00000d0 	adrp	x16, 25000 <code_1063@Base>
    b504:	f940ba11 	ldr	x17, [x16, #368]
    b508:	9105c210 	add	x16, x16, #0x170
    b50c:	d61f0220 	br	x17

000000000000b510 <code_925@plt>:
    b510:	d00000d0 	adrp	x16, 25000 <code_1063@Base>
    b514:	f940be11 	ldr	x17, [x16, #376]
    b518:	9105e210 	add	x16, x16, #0x178
    b51c:	d61f0220 	br	x17

000000000000b520 <code_1464@plt>:
    b520:	d00000d0 	adrp	x16, 25000 <code_1063@Base>
    b524:	f940c211 	ldr	x17, [x16, #384]
    b528:	91060210 	add	x16, x16, #0x180
    b52c:	d61f0220 	br	x17

000000000000b530 <code_1468@plt>:
    b530:	d00000d0 	adrp	x16, 25000 <code_1063@Base>
    b534:	f940c611 	ldr	x17, [x16, #392]
    b538:	91062210 	add	x16, x16, #0x188
    b53c:	d61f0220 	br	x17

000000000000b540 <code_129@plt>:
    b540:	d00000d0 	adrp	x16, 25000 <code_1063@Base>
    b544:	f940ca11 	ldr	x17, [x16, #400]
    b548:	91064210 	add	x16, x16, #0x190
    b54c:	d61f0220 	br	x17

000000000000b550 <code_960@plt>:
    b550:	d00000d0 	adrp	x16, 25000 <code_1063@Base>
    b554:	f940ce11 	ldr	x17, [x16, #408]
    b558:	91066210 	add	x16, x16, #0x198
    b55c:	d61f0220 	br	x17

000000000000b560 <code_1110@plt>:
    b560:	d00000d0 	adrp	x16, 25000 <code_1063@Base>
    b564:	f940d211 	ldr	x17, [x16, #416]
    b568:	91068210 	add	x16, x16, #0x1a0
    b56c:	d61f0220 	br	x17

000000000000b570 <code_164@plt>:
    b570:	d00000d0 	adrp	x16, 25000 <code_1063@Base>
    b574:	f940d611 	ldr	x17, [x16, #424]
    b578:	9106a210 	add	x16, x16, #0x1a8
    b57c:	d61f0220 	br	x17

000000000000b580 <code_577@plt>:
    b580:	d00000d0 	adrp	x16, 25000 <code_1063@Base>
    b584:	f940da11 	ldr	x17, [x16, #432]
    b588:	9106c210 	add	x16, x16, #0x1b0
    b58c:	d61f0220 	br	x17

000000000000b590 <code_76@plt>:
    b590:	d00000d0 	adrp	x16, 25000 <code_1063@Base>
    b594:	f940de11 	ldr	x17, [x16, #440]
    b598:	9106e210 	add	x16, x16, #0x1b8
    b59c:	d61f0220 	br	x17

000000000000b5a0 <code_538@plt>:
    b5a0:	d00000d0 	adrp	x16, 25000 <code_1063@Base>
    b5a4:	f940e211 	ldr	x17, [x16, #448]
    b5a8:	91070210 	add	x16, x16, #0x1c0
    b5ac:	d61f0220 	br	x17

000000000000b5b0 <code_575@plt>:
    b5b0:	d00000d0 	adrp	x16, 25000 <code_1063@Base>
    b5b4:	f940e611 	ldr	x17, [x16, #456]
    b5b8:	91072210 	add	x16, x16, #0x1c8
    b5bc:	d61f0220 	br	x17

000000000000b5c0 <code_160@plt>:
    b5c0:	d00000d0 	adrp	x16, 25000 <code_1063@Base>
    b5c4:	f940ea11 	ldr	x17, [x16, #464]
    b5c8:	91074210 	add	x16, x16, #0x1d0
    b5cc:	d61f0220 	br	x17

000000000000b5d0 <code_573@plt>:
    b5d0:	d00000d0 	adrp	x16, 25000 <code_1063@Base>
    b5d4:	f940ee11 	ldr	x17, [x16, #472]
    b5d8:	91076210 	add	x16, x16, #0x1d8
    b5dc:	d61f0220 	br	x17

000000000000b5e0 <code_70@plt>:
    b5e0:	d00000d0 	adrp	x16, 25000 <code_1063@Base>
    b5e4:	f940f211 	ldr	x17, [x16, #480]
    b5e8:	91078210 	add	x16, x16, #0x1e0
    b5ec:	d61f0220 	br	x17

000000000000b5f0 <code_412@plt>:
    b5f0:	d00000d0 	adrp	x16, 25000 <code_1063@Base>
    b5f4:	f940f611 	ldr	x17, [x16, #488]
    b5f8:	9107a210 	add	x16, x16, #0x1e8
    b5fc:	d61f0220 	br	x17

000000000000b600 <code_1306@plt>:
    b600:	d00000d0 	adrp	x16, 25000 <code_1063@Base>
    b604:	f940fa11 	ldr	x17, [x16, #496]
    b608:	9107c210 	add	x16, x16, #0x1f0
    b60c:	d61f0220 	br	x17

000000000000b610 <code_698@plt>:
    b610:	d00000d0 	adrp	x16, 25000 <code_1063@Base>
    b614:	f940fe11 	ldr	x17, [x16, #504]
    b618:	9107e210 	add	x16, x16, #0x1f8
    b61c:	d61f0220 	br	x17

000000000000b620 <code_651@plt>:
    b620:	d00000d0 	adrp	x16, 25000 <code_1063@Base>
    b624:	f9410211 	ldr	x17, [x16, #512]
    b628:	91080210 	add	x16, x16, #0x200
    b62c:	d61f0220 	br	x17

000000000000b630 <code_1125@plt>:
    b630:	d00000d0 	adrp	x16, 25000 <code_1063@Base>
    b634:	f9410611 	ldr	x17, [x16, #520]
    b638:	91082210 	add	x16, x16, #0x208
    b63c:	d61f0220 	br	x17

000000000000b640 <code_628@plt>:
    b640:	d00000d0 	adrp	x16, 25000 <code_1063@Base>
    b644:	f9410a11 	ldr	x17, [x16, #528]
    b648:	91084210 	add	x16, x16, #0x210
    b64c:	d61f0220 	br	x17

000000000000b650 <code_663@plt>:
    b650:	d00000d0 	adrp	x16, 25000 <code_1063@Base>
    b654:	f9410e11 	ldr	x17, [x16, #536]
    b658:	91086210 	add	x16, x16, #0x218
    b65c:	d61f0220 	br	x17

000000000000b660 <code_1300@plt>:
    b660:	d00000d0 	adrp	x16, 25000 <code_1063@Base>
    b664:	f9411211 	ldr	x17, [x16, #544]
    b668:	91088210 	add	x16, x16, #0x220
    b66c:	d61f0220 	br	x17

000000000000b670 <code_1129@plt>:
    b670:	d00000d0 	adrp	x16, 25000 <code_1063@Base>
    b674:	f9411611 	ldr	x17, [x16, #552]
    b678:	9108a210 	add	x16, x16, #0x228
    b67c:	d61f0220 	br	x17

000000000000b680 <code_661@plt>:
    b680:	d00000d0 	adrp	x16, 25000 <code_1063@Base>
    b684:	f9411a11 	ldr	x17, [x16, #560]
    b688:	9108c210 	add	x16, x16, #0x230
    b68c:	d61f0220 	br	x17

000000000000b690 <code_1304@plt>:
    b690:	d00000d0 	adrp	x16, 25000 <code_1063@Base>
    b694:	f9411e11 	ldr	x17, [x16, #568]
    b698:	9108e210 	add	x16, x16, #0x238
    b69c:	d61f0220 	br	x17

000000000000b6a0 <code_299@plt>:
    b6a0:	d00000d0 	adrp	x16, 25000 <code_1063@Base>
    b6a4:	f9412211 	ldr	x17, [x16, #576]
    b6a8:	91090210 	add	x16, x16, #0x240
    b6ac:	d61f0220 	br	x17

000000000000b6b0 <code_254@plt>:
    b6b0:	d00000d0 	adrp	x16, 25000 <code_1063@Base>
    b6b4:	f9412611 	ldr	x17, [x16, #584]
    b6b8:	91092210 	add	x16, x16, #0x248
    b6bc:	d61f0220 	br	x17

000000000000b6c0 <code_1266@plt>:
    b6c0:	d00000d0 	adrp	x16, 25000 <code_1063@Base>
    b6c4:	f9412a11 	ldr	x17, [x16, #592]
    b6c8:	91094210 	add	x16, x16, #0x250
    b6cc:	d61f0220 	br	x17

000000000000b6d0 <code_1264@plt>:
    b6d0:	d00000d0 	adrp	x16, 25000 <code_1063@Base>
    b6d4:	f9412e11 	ldr	x17, [x16, #600]
    b6d8:	91096210 	add	x16, x16, #0x258
    b6dc:	d61f0220 	br	x17

000000000000b6e0 <code_534@plt>:
    b6e0:	d00000d0 	adrp	x16, 25000 <code_1063@Base>
    b6e4:	f9413211 	ldr	x17, [x16, #608]
    b6e8:	91098210 	add	x16, x16, #0x260
    b6ec:	d61f0220 	br	x17

000000000000b6f0 <code_571@plt>:
    b6f0:	d00000d0 	adrp	x16, 25000 <code_1063@Base>
    b6f4:	f9413611 	ldr	x17, [x16, #616]
    b6f8:	9109a210 	add	x16, x16, #0x268
    b6fc:	d61f0220 	br	x17

000000000000b700 <code_769@plt>:
    b700:	d00000d0 	adrp	x16, 25000 <code_1063@Base>
    b704:	f9413a11 	ldr	x17, [x16, #624]
    b708:	9109c210 	add	x16, x16, #0x270
    b70c:	d61f0220 	br	x17

000000000000b710 <code_776@plt>:
    b710:	d00000d0 	adrp	x16, 25000 <code_1063@Base>
    b714:	f9413e11 	ldr	x17, [x16, #632]
    b718:	9109e210 	add	x16, x16, #0x278
    b71c:	d61f0220 	br	x17

000000000000b720 <code_1074@plt>:
    b720:	d00000d0 	adrp	x16, 25000 <code_1063@Base>
    b724:	f9414211 	ldr	x17, [x16, #640]
    b728:	910a0210 	add	x16, x16, #0x280
    b72c:	d61f0220 	br	x17

000000000000b730 <code_293@plt>:
    b730:	d00000d0 	adrp	x16, 25000 <code_1063@Base>
    b734:	f9414611 	ldr	x17, [x16, #648]
    b738:	910a2210 	add	x16, x16, #0x288
    b73c:	d61f0220 	br	x17

000000000000b740 <code_532@plt>:
    b740:	d00000d0 	adrp	x16, 25000 <code_1063@Base>
    b744:	f9414a11 	ldr	x17, [x16, #656]
    b748:	910a4210 	add	x16, x16, #0x290
    b74c:	d61f0220 	br	x17

000000000000b750 <code_1406@plt>:
    b750:	d00000d0 	adrp	x16, 25000 <code_1063@Base>
    b754:	f9414e11 	ldr	x17, [x16, #664]
    b758:	910a6210 	add	x16, x16, #0x298
    b75c:	d61f0220 	br	x17

000000000000b760 <code_291@plt>:
    b760:	d00000d0 	adrp	x16, 25000 <code_1063@Base>
    b764:	f9415211 	ldr	x17, [x16, #672]
    b768:	910a8210 	add	x16, x16, #0x2a0
    b76c:	d61f0220 	br	x17

000000000000b770 <code_1268@plt>:
    b770:	d00000d0 	adrp	x16, 25000 <code_1063@Base>
    b774:	f9415611 	ldr	x17, [x16, #680]
    b778:	910aa210 	add	x16, x16, #0x2a8
    b77c:	d61f0220 	br	x17

000000000000b780 <code_47@plt>:
    b780:	d00000d0 	adrp	x16, 25000 <code_1063@Base>
    b784:	f9415a11 	ldr	x17, [x16, #688]
    b788:	910ac210 	add	x16, x16, #0x2b0
    b78c:	d61f0220 	br	x17

000000000000b790 <code_1072@plt>:
    b790:	d00000d0 	adrp	x16, 25000 <code_1063@Base>
    b794:	f9415e11 	ldr	x17, [x16, #696]
    b798:	910ae210 	add	x16, x16, #0x2b8
    b79c:	d61f0220 	br	x17

000000000000b7a0 <code_728@plt>:
    b7a0:	d00000d0 	adrp	x16, 25000 <code_1063@Base>
    b7a4:	f9416211 	ldr	x17, [x16, #704]
    b7a8:	910b0210 	add	x16, x16, #0x2c0
    b7ac:	d61f0220 	br	x17

000000000000b7b0 <code_1035@plt>:
    b7b0:	d00000d0 	adrp	x16, 25000 <code_1063@Base>
    b7b4:	f9416611 	ldr	x17, [x16, #712]
    b7b8:	910b2210 	add	x16, x16, #0x2c8
    b7bc:	d61f0220 	br	x17

000000000000b7c0 <code_1229@plt>:
    b7c0:	d00000d0 	adrp	x16, 25000 <code_1063@Base>
    b7c4:	f9416a11 	ldr	x17, [x16, #720]
    b7c8:	910b4210 	add	x16, x16, #0x2d0
    b7cc:	d61f0220 	br	x17

000000000000b7d0 <code_726@plt>:
    b7d0:	d00000d0 	adrp	x16, 25000 <code_1063@Base>
    b7d4:	f9416e11 	ldr	x17, [x16, #728]
    b7d8:	910b6210 	add	x16, x16, #0x2d8
    b7dc:	d61f0220 	br	x17

000000000000b7e0 <code_6@plt>:
    b7e0:	d00000d0 	adrp	x16, 25000 <code_1063@Base>
    b7e4:	f9417211 	ldr	x17, [x16, #736]
    b7e8:	910b8210 	add	x16, x16, #0x2e0
    b7ec:	d61f0220 	br	x17

000000000000b7f0 <code_1166@plt>:
    b7f0:	d00000d0 	adrp	x16, 25000 <code_1063@Base>
    b7f4:	f9417611 	ldr	x17, [x16, #744]
    b7f8:	910ba210 	add	x16, x16, #0x2e8
    b7fc:	d61f0220 	br	x17

000000000000b800 <code_1400@plt>:
    b800:	d00000d0 	adrp	x16, 25000 <code_1063@Base>
    b804:	f9417a11 	ldr	x17, [x16, #752]
    b808:	910bc210 	add	x16, x16, #0x2f0
    b80c:	d61f0220 	br	x17

000000000000b810 <code_374@plt>:
    b810:	d00000d0 	adrp	x16, 25000 <code_1063@Base>
    b814:	f9417e11 	ldr	x17, [x16, #760]
    b818:	910be210 	add	x16, x16, #0x2f8
    b81c:	d61f0220 	br	x17

000000000000b820 <code_339@plt>:
    b820:	d00000d0 	adrp	x16, 25000 <code_1063@Base>
    b824:	f9418211 	ldr	x17, [x16, #768]
    b828:	910c0210 	add	x16, x16, #0x300
    b82c:	d61f0220 	br	x17

000000000000b830 <code_337@plt>:
    b830:	d00000d0 	adrp	x16, 25000 <code_1063@Base>
    b834:	f9418611 	ldr	x17, [x16, #776]
    b838:	910c2210 	add	x16, x16, #0x308
    b83c:	d61f0220 	br	x17

000000000000b840 <code_801@plt>:
    b840:	d00000d0 	adrp	x16, 25000 <code_1063@Base>
    b844:	f9418a11 	ldr	x17, [x16, #784]
    b848:	910c4210 	add	x16, x16, #0x310
    b84c:	d61f0220 	br	x17

000000000000b850 <code_1144@plt>:
    b850:	d00000d0 	adrp	x16, 25000 <code_1063@Base>
    b854:	f9418e11 	ldr	x17, [x16, #792]
    b858:	910c6210 	add	x16, x16, #0x318
    b85c:	d61f0220 	br	x17

000000000000b860 <code_1107@plt>:
    b860:	d00000d0 	adrp	x16, 25000 <code_1063@Base>
    b864:	f9419211 	ldr	x17, [x16, #800]
    b868:	910c8210 	add	x16, x16, #0x320
    b86c:	d61f0220 	br	x17

000000000000b870 <code_1356@plt>:
    b870:	d00000d0 	adrp	x16, 25000 <code_1063@Base>
    b874:	f9419611 	ldr	x17, [x16, #808]
    b878:	910ca210 	add	x16, x16, #0x328
    b87c:	d61f0220 	br	x17

000000000000b880 <code_857@plt>:
    b880:	d00000d0 	adrp	x16, 25000 <code_1063@Base>
    b884:	f9419a11 	ldr	x17, [x16, #816]
    b888:	910cc210 	add	x16, x16, #0x330
    b88c:	d61f0220 	br	x17

000000000000b890 <code_1354@plt>:
    b890:	d00000d0 	adrp	x16, 25000 <code_1063@Base>
    b894:	f9419e11 	ldr	x17, [x16, #824]
    b898:	910ce210 	add	x16, x16, #0x338
    b89c:	d61f0220 	br	x17

000000000000b8a0 <code_1317@plt>:
    b8a0:	d00000d0 	adrp	x16, 25000 <code_1063@Base>
    b8a4:	f941a211 	ldr	x17, [x16, #832]
    b8a8:	910d0210 	add	x16, x16, #0x340
    b8ac:	d61f0220 	br	x17

000000000000b8b0 <code_45@plt>:
    b8b0:	d00000d0 	adrp	x16, 25000 <code_1063@Base>
    b8b4:	f941a611 	ldr	x17, [x16, #840]
    b8b8:	910d2210 	add	x16, x16, #0x348
    b8bc:	d61f0220 	br	x17

000000000000b8c0 <code_1142@plt>:
    b8c0:	d00000d0 	adrp	x16, 25000 <code_1063@Base>
    b8c4:	f941aa11 	ldr	x17, [x16, #848]
    b8c8:	910d4210 	add	x16, x16, #0x350
    b8cc:	d61f0220 	br	x17

000000000000b8d0 <code_805@plt>:
    b8d0:	d00000d0 	adrp	x16, 25000 <code_1063@Base>
    b8d4:	f941ae11 	ldr	x17, [x16, #856]
    b8d8:	910d6210 	add	x16, x16, #0x358
    b8dc:	d61f0220 	br	x17

000000000000b8e0 <code_1105@plt>:
    b8e0:	d00000d0 	adrp	x16, 25000 <code_1063@Base>
    b8e4:	f941b211 	ldr	x17, [x16, #864]
    b8e8:	910d8210 	add	x16, x16, #0x360
    b8ec:	d61f0220 	br	x17

000000000000b8f0 <code_855@plt>:
    b8f0:	d00000d0 	adrp	x16, 25000 <code_1063@Base>
    b8f4:	f941b611 	ldr	x17, [x16, #872]
    b8f8:	910da210 	add	x16, x16, #0x368
    b8fc:	d61f0220 	br	x17

000000000000b900 <code_43@plt>:
    b900:	d00000d0 	adrp	x16, 25000 <code_1063@Base>
    b904:	f941ba11 	ldr	x17, [x16, #880]
    b908:	910dc210 	add	x16, x16, #0x370
    b90c:	d61f0220 	br	x17

000000000000b910 <code_853@plt>:
    b910:	d00000d0 	adrp	x16, 25000 <code_1063@Base>
    b914:	f941be11 	ldr	x17, [x16, #888]
    b918:	910de210 	add	x16, x16, #0x378
    b91c:	d61f0220 	br	x17

000000000000b920 <code_816@plt>:
    b920:	d00000d0 	adrp	x16, 25000 <code_1063@Base>
    b924:	f941c211 	ldr	x17, [x16, #896]
    b928:	910e0210 	add	x16, x16, #0x380
    b92c:	d61f0220 	br	x17

000000000000b930 <code_894@plt>:
    b930:	d00000d0 	adrp	x16, 25000 <code_1063@Base>
    b934:	f941c611 	ldr	x17, [x16, #904]
    b938:	910e2210 	add	x16, x16, #0x388
    b93c:	d61f0220 	br	x17

000000000000b940 <code_896@plt>:
    b940:	d00000d0 	adrp	x16, 25000 <code_1063@Base>
    b944:	f941ca11 	ldr	x17, [x16, #912]
    b948:	910e4210 	add	x16, x16, #0x390
    b94c:	d61f0220 	br	x17

000000000000b950 <code_1103@plt>:
    b950:	d00000d0 	adrp	x16, 25000 <code_1063@Base>
    b954:	f941ce11 	ldr	x17, [x16, #920]
    b958:	910e6210 	add	x16, x16, #0x398
    b95c:	d61f0220 	br	x17

000000000000b960 <code_892@plt>:
    b960:	d00000d0 	adrp	x16, 25000 <code_1063@Base>
    b964:	f941d211 	ldr	x17, [x16, #928]
    b968:	910e8210 	add	x16, x16, #0x3a0
    b96c:	d61f0220 	br	x17

000000000000b970 <code_1391@plt>:
    b970:	d00000d0 	adrp	x16, 25000 <code_1063@Base>
    b974:	f941d611 	ldr	x17, [x16, #936]
    b978:	910ea210 	add	x16, x16, #0x3a8
    b97c:	d61f0220 	br	x17

000000000000b980 <code_1101@plt>:
    b980:	d00000d0 	adrp	x16, 25000 <code_1063@Base>
    b984:	f941da11 	ldr	x17, [x16, #944]
    b988:	910ec210 	add	x16, x16, #0x3b0
    b98c:	d61f0220 	br	x17

000000000000b990 <code_448@plt>:
    b990:	d00000d0 	adrp	x16, 25000 <code_1063@Base>
    b994:	f941de11 	ldr	x17, [x16, #952]
    b998:	910ee210 	add	x16, x16, #0x3b8
    b99c:	d61f0220 	br	x17

000000000000b9a0 <code_446@plt>:
    b9a0:	d00000d0 	adrp	x16, 25000 <code_1063@Base>
    b9a4:	f941e211 	ldr	x17, [x16, #960]
    b9a8:	910f0210 	add	x16, x16, #0x3c0
    b9ac:	d61f0220 	br	x17

000000000000b9b0 <code_409@plt>:
    b9b0:	d00000d0 	adrp	x16, 25000 <code_1063@Base>
    b9b4:	f941e611 	ldr	x17, [x16, #968]
    b9b8:	910f2210 	add	x16, x16, #0x3c8
    b9bc:	d61f0220 	br	x17

000000000000b9c0 <code_1399@plt>:
    b9c0:	d00000d0 	adrp	x16, 25000 <code_1063@Base>
    b9c4:	f941ea11 	ldr	x17, [x16, #976]
    b9c8:	910f4210 	add	x16, x16, #0x3d0
    b9cc:	d61f0220 	br	x17

000000000000b9d0 <code_407@plt>:
    b9d0:	d00000d0 	adrp	x16, 25000 <code_1063@Base>
    b9d4:	f941ee11 	ldr	x17, [x16, #984]
    b9d8:	910f6210 	add	x16, x16, #0x3d8
    b9dc:	d61f0220 	br	x17

000000000000b9e0 <code_1434@plt>:
    b9e0:	d00000d0 	adrp	x16, 25000 <code_1063@Base>
    b9e4:	f941f211 	ldr	x17, [x16, #992]
    b9e8:	910f8210 	add	x16, x16, #0x3e0
    b9ec:	d61f0220 	br	x17

000000000000b9f0 <code_1069@plt>:
    b9f0:	d00000d0 	adrp	x16, 25000 <code_1063@Base>
    b9f4:	f941f611 	ldr	x17, [x16, #1000]
    b9f8:	910fa210 	add	x16, x16, #0x3e8
    b9fc:	d61f0220 	br	x17

000000000000ba00 <code_333@plt>:
    ba00:	d00000d0 	adrp	x16, 25000 <code_1063@Base>
    ba04:	f941fa11 	ldr	x17, [x16, #1008]
    ba08:	910fc210 	add	x16, x16, #0x3f0
    ba0c:	d61f0220 	br	x17

000000000000ba10 <code_1246@plt>:
    ba10:	d00000d0 	adrp	x16, 25000 <code_1063@Base>
    ba14:	f941fe11 	ldr	x17, [x16, #1016]
    ba18:	910fe210 	add	x16, x16, #0x3f8
    ba1c:	d61f0220 	br	x17

000000000000ba20 <code_1395@plt>:
    ba20:	d00000d0 	adrp	x16, 25000 <code_1063@Base>
    ba24:	f9420211 	ldr	x17, [x16, #1024]
    ba28:	91100210 	add	x16, x16, #0x400
    ba2c:	d61f0220 	br	x17

000000000000ba30 <code_331@plt>:
    ba30:	d00000d0 	adrp	x16, 25000 <code_1063@Base>
    ba34:	f9420611 	ldr	x17, [x16, #1032]
    ba38:	91102210 	add	x16, x16, #0x408
    ba3c:	d61f0220 	br	x17

000000000000ba40 <code_989@plt>:
    ba40:	d00000d0 	adrp	x16, 25000 <code_1063@Base>
    ba44:	f9420a11 	ldr	x17, [x16, #1040]
    ba48:	91104210 	add	x16, x16, #0x410
    ba4c:	d61f0220 	br	x17

000000000000ba50 <code_901@plt>:
    ba50:	d00000d0 	adrp	x16, 25000 <code_1063@Base>
    ba54:	f9420e11 	ldr	x17, [x16, #1048]
    ba58:	91106210 	add	x16, x16, #0x418
    ba5c:	d61f0220 	br	x17

000000000000ba60 <code_1471@plt>:
    ba60:	d00000d0 	adrp	x16, 25000 <code_1063@Base>
    ba64:	f9421211 	ldr	x17, [x16, #1056]
    ba68:	91108210 	add	x16, x16, #0x420
    ba6c:	d61f0220 	br	x17

000000000000ba70 <code_933@plt>:
    ba70:	d00000d0 	adrp	x16, 25000 <code_1063@Base>
    ba74:	f9421611 	ldr	x17, [x16, #1064]
    ba78:	9110a210 	add	x16, x16, #0x428
    ba7c:	d61f0220 	br	x17

000000000000ba80 <code_903@plt>:
    ba80:	d00000d0 	adrp	x16, 25000 <code_1063@Base>
    ba84:	f9421a11 	ldr	x17, [x16, #1072]
    ba88:	9110c210 	add	x16, x16, #0x430
    ba8c:	d61f0220 	br	x17

000000000000ba90 <code_1242@plt>:
    ba90:	d00000d0 	adrp	x16, 25000 <code_1063@Base>
    ba94:	f9421e11 	ldr	x17, [x16, #1080]
    ba98:	9110e210 	add	x16, x16, #0x438
    ba9c:	d61f0220 	br	x17

000000000000baa0 <code_1203@plt>:
    baa0:	d00000d0 	adrp	x16, 25000 <code_1063@Base>
    baa4:	f9422211 	ldr	x17, [x16, #1088]
    baa8:	91110210 	add	x16, x16, #0x440
    baac:	d61f0220 	br	x17

000000000000bab0 <code_489@plt>:
    bab0:	d00000d0 	adrp	x16, 25000 <code_1063@Base>
    bab4:	f9422611 	ldr	x17, [x16, #1096]
    bab8:	91112210 	add	x16, x16, #0x448
    babc:	d61f0220 	br	x17

000000000000bac0 <code_1436@plt>:
    bac0:	d00000d0 	adrp	x16, 25000 <code_1063@Base>
    bac4:	f9422a11 	ldr	x17, [x16, #1104]
    bac8:	91114210 	add	x16, x16, #0x450
    bacc:	d61f0220 	br	x17

000000000000bad0 <__gmon_start__@plt>:
    bad0:	d00000d0 	adrp	x16, 25000 <code_1063@Base>
    bad4:	f9422e11 	ldr	x17, [x16, #1112]
    bad8:	91116210 	add	x16, x16, #0x458
    badc:	d61f0220 	br	x17

000000000000bae0 <code_1473@plt>:
    bae0:	d00000d0 	adrp	x16, 25000 <code_1063@Base>
    bae4:	f9423211 	ldr	x17, [x16, #1120]
    bae8:	91118210 	add	x16, x16, #0x460
    baec:	d61f0220 	br	x17

000000000000baf0 <code_974@plt>:
    baf0:	d00000d0 	adrp	x16, 25000 <code_1063@Base>
    baf4:	f9423611 	ldr	x17, [x16, #1128]
    baf8:	9111a210 	add	x16, x16, #0x468
    bafc:	d61f0220 	br	x17

000000000000bb00 <code_970@plt>:
    bb00:	d00000d0 	adrp	x16, 25000 <code_1063@Base>
    bb04:	f9423a11 	ldr	x17, [x16, #1136]
    bb08:	9111c210 	add	x16, x16, #0x470
    bb0c:	d61f0220 	br	x17

000000000000bb10 <code_1475@plt>:
    bb10:	d00000d0 	adrp	x16, 25000 <code_1063@Base>
    bb14:	f9423e11 	ldr	x17, [x16, #1144]
    bb18:	9111e210 	add	x16, x16, #0x478
    bb1c:	d61f0220 	br	x17

000000000000bb20 <code_583@plt>:
    bb20:	d00000d0 	adrp	x16, 25000 <code_1063@Base>
    bb24:	f9424211 	ldr	x17, [x16, #1152]
    bb28:	91120210 	add	x16, x16, #0x480
    bb2c:	d61f0220 	br	x17

000000000000bb30 <code_133@plt>:
    bb30:	d00000d0 	adrp	x16, 25000 <code_1063@Base>
    bb34:	f9424611 	ldr	x17, [x16, #1160]
    bb38:	91122210 	add	x16, x16, #0x488
    bb3c:	d61f0220 	br	x17

000000000000bb40 <code_548@plt>:
    bb40:	d00000d0 	adrp	x16, 25000 <code_1063@Base>
    bb44:	f9424a11 	ldr	x17, [x16, #1168]
    bb48:	91124210 	add	x16, x16, #0x490
    bb4c:	d61f0220 	br	x17

000000000000bb50 <code_581@plt>:
    bb50:	d00000d0 	adrp	x16, 25000 <code_1063@Base>
    bb54:	f9424e11 	ldr	x17, [x16, #1176]
    bb58:	91126210 	add	x16, x16, #0x498
    bb5c:	d61f0220 	br	x17

000000000000bb60 <code_546@plt>:
    bb60:	d00000d0 	adrp	x16, 25000 <code_1063@Base>
    bb64:	f9425211 	ldr	x17, [x16, #1184]
    bb68:	91128210 	add	x16, x16, #0x4a0
    bb6c:	d61f0220 	br	x17

000000000000bb70 <code_84@plt>:
    bb70:	d00000d0 	adrp	x16, 25000 <code_1063@Base>
    bb74:	f9425611 	ldr	x17, [x16, #1192]
    bb78:	9112a210 	add	x16, x16, #0x4a8
    bb7c:	d61f0220 	br	x17

000000000000bb80 <code_1140@plt>:
    bb80:	d00000d0 	adrp	x16, 25000 <code_1063@Base>
    bb84:	f9425a11 	ldr	x17, [x16, #1200]
    bb88:	9112c210 	add	x16, x16, #0x4b0
    bb8c:	d61f0220 	br	x17

000000000000bb90 <code_509@plt>:
    bb90:	d00000d0 	adrp	x16, 25000 <code_1063@Base>
    bb94:	f9425e11 	ldr	x17, [x16, #1208]
    bb98:	9112e210 	add	x16, x16, #0x4b8
    bb9c:	d61f0220 	br	x17

000000000000bba0 <code_601@plt>:
    bba0:	d00000d0 	adrp	x16, 25000 <code_1063@Base>
    bba4:	f9426211 	ldr	x17, [x16, #1216]
    bba8:	91130210 	add	x16, x16, #0x4c0
    bbac:	d61f0220 	br	x17

000000000000bbb0 <abort@plt>:
    bbb0:	d00000d0 	adrp	x16, 25000 <code_1063@Base>
    bbb4:	f9426611 	ldr	x17, [x16, #1224]
    bbb8:	91132210 	add	x16, x16, #0x4c8
    bbbc:	d61f0220 	br	x17

000000000000bbc0 <code_139@plt>:
    bbc0:	d00000d0 	adrp	x16, 25000 <code_1063@Base>
    bbc4:	f9426a11 	ldr	x17, [x16, #1232]
    bbc8:	91134210 	add	x16, x16, #0x4d0
    bbcc:	d61f0220 	br	x17

000000000000bbd0 <code_687@plt>:
    bbd0:	d00000d0 	adrp	x16, 25000 <code_1063@Base>
    bbd4:	f9426e11 	ldr	x17, [x16, #1240]
    bbd8:	91136210 	add	x16, x16, #0x4d8
    bbdc:	d61f0220 	br	x17

000000000000bbe0 <code_440@plt>:
    bbe0:	d00000d0 	adrp	x16, 25000 <code_1063@Base>
    bbe4:	f9427211 	ldr	x17, [x16, #1248]
    bbe8:	91138210 	add	x16, x16, #0x4e0
    bbec:	d61f0220 	br	x17

000000000000bbf0 <code_403@plt>:
    bbf0:	d00000d0 	adrp	x16, 25000 <code_1063@Base>
    bbf4:	f9427611 	ldr	x17, [x16, #1256]
    bbf8:	9113a210 	add	x16, x16, #0x4e8
    bbfc:	d61f0220 	br	x17

000000000000bc00 <code_1116@plt>:
    bc00:	d00000d0 	adrp	x16, 25000 <code_1063@Base>
    bc04:	f9427a11 	ldr	x17, [x16, #1264]
    bc08:	9113c210 	add	x16, x16, #0x4f0
    bc0c:	d61f0220 	br	x17

000000000000bc10 <code_659@plt>:
    bc10:	d00000d0 	adrp	x16, 25000 <code_1063@Base>
    bc14:	f9427e11 	ldr	x17, [x16, #1272]
    bc18:	9113e210 	add	x16, x16, #0x4f8
    bc1c:	d61f0220 	br	x17

000000000000bc20 <code_1331@plt>:
    bc20:	d00000d0 	adrp	x16, 25000 <code_1063@Base>
    bc24:	f9428211 	ldr	x17, [x16, #1280]
    bc28:	91140210 	add	x16, x16, #0x500
    bc2c:	d61f0220 	br	x17

000000000000bc30 <code_642@plt>:
    bc30:	d00000d0 	adrp	x16, 25000 <code_1063@Base>
    bc34:	f9428611 	ldr	x17, [x16, #1288]
    bc38:	91142210 	add	x16, x16, #0x508
    bc3c:	d61f0220 	br	x17

000000000000bc40 <code_607@plt>:
    bc40:	d00000d0 	adrp	x16, 25000 <code_1063@Base>
    bc44:	f9428a11 	ldr	x17, [x16, #1296]
    bc48:	91144210 	add	x16, x16, #0x510
    bc4c:	d61f0220 	br	x17

000000000000bc50 <code_657@plt>:
    bc50:	d00000d0 	adrp	x16, 25000 <code_1063@Base>
    bc54:	f9428e11 	ldr	x17, [x16, #1304]
    bc58:	91146210 	add	x16, x16, #0x518
    bc5c:	d61f0220 	br	x17

000000000000bc60 <code_176@plt>:
    bc60:	d00000d0 	adrp	x16, 25000 <code_1063@Base>
    bc64:	f9429211 	ldr	x17, [x16, #1312]
    bc68:	91148210 	add	x16, x16, #0x520
    bc6c:	d61f0220 	br	x17

000000000000bc70 <code_1273@plt>:
    bc70:	d00000d0 	adrp	x16, 25000 <code_1063@Base>
    bc74:	f9429611 	ldr	x17, [x16, #1320]
    bc78:	9114a210 	add	x16, x16, #0x528
    bc7c:	d61f0220 	br	x17

000000000000bc80 <code_692@plt>:
    bc80:	d00000d0 	adrp	x16, 25000 <code_1063@Base>
    bc84:	f9429a11 	ldr	x17, [x16, #1328]
    bc88:	9114c210 	add	x16, x16, #0x530
    bc8c:	d61f0220 	br	x17

000000000000bc90 <code_285@plt>:
    bc90:	d00000d0 	adrp	x16, 25000 <code_1063@Base>
    bc94:	f9429e11 	ldr	x17, [x16, #1336]
    bc98:	9114e210 	add	x16, x16, #0x538
    bc9c:	d61f0220 	br	x17

000000000000bca0 <code_248@plt>:
    bca0:	d00000d0 	adrp	x16, 25000 <code_1063@Base>
    bca4:	f942a211 	ldr	x17, [x16, #1344]
    bca8:	91150210 	add	x16, x16, #0x540
    bcac:	d61f0220 	br	x17

000000000000bcb0 <init@plt>:
    bcb0:	d00000d0 	adrp	x16, 25000 <code_1063@Base>
    bcb4:	f942a611 	ldr	x17, [x16, #1352]
    bcb8:	91152210 	add	x16, x16, #0x548
    bcbc:	d61f0220 	br	x17

000000000000bcc0 <code_1040@plt>:
    bcc0:	d00000d0 	adrp	x16, 25000 <code_1063@Base>
    bcc4:	f942aa11 	ldr	x17, [x16, #1360]
    bcc8:	91154210 	add	x16, x16, #0x550
    bccc:	d61f0220 	br	x17

000000000000bcd0 <code_283@plt>:
    bcd0:	d00000d0 	adrp	x16, 25000 <code_1063@Base>
    bcd4:	f942ae11 	ldr	x17, [x16, #1368]
    bcd8:	91156210 	add	x16, x16, #0x558
    bcdc:	d61f0220 	br	x17

000000000000bce0 <code_244@plt>:
    bce0:	d00000d0 	adrp	x16, 25000 <code_1063@Base>
    bce4:	f942b211 	ldr	x17, [x16, #1376]
    bce8:	91158210 	add	x16, x16, #0x560
    bcec:	d61f0220 	br	x17

000000000000bcf0 <code_501@plt>:
    bcf0:	d00000d0 	adrp	x16, 25000 <code_1063@Base>
    bcf4:	f942b611 	ldr	x17, [x16, #1384]
    bcf8:	9115a210 	add	x16, x16, #0x568
    bcfc:	d61f0220 	br	x17

000000000000bd00 <code_242@plt>:
    bd00:	d00000d0 	adrp	x16, 25000 <code_1063@Base>
    bd04:	f942ba11 	ldr	x17, [x16, #1392]
    bd08:	9115c210 	add	x16, x16, #0x570
    bd0c:	d61f0220 	br	x17

000000000000bd10 <code_739@plt>:
    bd10:	d00000d0 	adrp	x16, 25000 <code_1063@Base>
    bd14:	f942be11 	ldr	x17, [x16, #1400]
    bd18:	9115e210 	add	x16, x16, #0x578
    bd1c:	d61f0220 	br	x17

000000000000bd20 <code_785@plt>:
    bd20:	d00000d0 	adrp	x16, 25000 <code_1063@Base>
    bd24:	f942c211 	ldr	x17, [x16, #1408]
    bd28:	91160210 	add	x16, x16, #0x580
    bd2c:	d61f0220 	br	x17

000000000000bd30 <code_505@plt>:
    bd30:	d00000d0 	adrp	x16, 25000 <code_1063@Base>
    bd34:	f942c611 	ldr	x17, [x16, #1416]
    bd38:	91162210 	add	x16, x16, #0x588
    bd3c:	d61f0220 	br	x17

000000000000bd40 <code_701@plt>:
    bd40:	d00000d0 	adrp	x16, 25000 <code_1063@Base>
    bd44:	f942ca11 	ldr	x17, [x16, #1424]
    bd48:	91164210 	add	x16, x16, #0x590
    bd4c:	d61f0220 	br	x17

000000000000bd50 <code_287@plt>:
    bd50:	d00000d0 	adrp	x16, 25000 <code_1063@Base>
    bd54:	f942ce11 	ldr	x17, [x16, #1432]
    bd58:	91166210 	add	x16, x16, #0x598
    bd5c:	d61f0220 	br	x17

000000000000bd60 <code_787@plt>:
    bd60:	d00000d0 	adrp	x16, 25000 <code_1063@Base>
    bd64:	f942d211 	ldr	x17, [x16, #1440]
    bd68:	91168210 	add	x16, x16, #0x5a0
    bd6c:	d61f0220 	br	x17

000000000000bd70 <code_1279@plt>:
    bd70:	d00000d0 	adrp	x16, 25000 <code_1063@Base>
    bd74:	f942d611 	ldr	x17, [x16, #1448]
    bd78:	9116a210 	add	x16, x16, #0x5a8
    bd7c:	d61f0220 	br	x17

000000000000bd80 <code_58@plt>:
    bd80:	d00000d0 	adrp	x16, 25000 <code_1063@Base>
    bd84:	f942da11 	ldr	x17, [x16, #1456]
    bd88:	9116c210 	add	x16, x16, #0x5b0
    bd8c:	d61f0220 	br	x17

000000000000bd90 <code_1007@plt>:
    bd90:	d00000d0 	adrp	x16, 25000 <code_1063@Base>
    bd94:	f942de11 	ldr	x17, [x16, #1464]
    bd98:	9116e210 	add	x16, x16, #0x5b8
    bd9c:	d61f0220 	br	x17

000000000000bda0 <code_772@plt>:
    bda0:	d00000d0 	adrp	x16, 25000 <code_1063@Base>
    bda4:	f942e211 	ldr	x17, [x16, #1472]
    bda8:	91170210 	add	x16, x16, #0x5c0
    bdac:	d61f0220 	br	x17

000000000000bdb0 <code_1001@plt>:
    bdb0:	d00000d0 	adrp	x16, 25000 <code_1063@Base>
    bdb4:	f942e611 	ldr	x17, [x16, #1480]
    bdb8:	91172210 	add	x16, x16, #0x5c8
    bdbc:	d61f0220 	br	x17

000000000000bdc0 <code_1151@plt>:
    bdc0:	d00000d0 	adrp	x16, 25000 <code_1063@Base>
    bdc4:	f942ea11 	ldr	x17, [x16, #1488]
    bdc8:	91174210 	add	x16, x16, #0x5d0
    bdcc:	d61f0220 	br	x17

000000000000bdd0 <code_50@plt>:
    bdd0:	d00000d0 	adrp	x16, 25000 <code_1063@Base>
    bdd4:	f942ee11 	ldr	x17, [x16, #1496]
    bdd8:	91176210 	add	x16, x16, #0x5d8
    bddc:	d61f0220 	br	x17

000000000000bde0 <code_1192@plt>:
    bde0:	d00000d0 	adrp	x16, 25000 <code_1063@Base>
    bde4:	f942f211 	ldr	x17, [x16, #1504]
    bde8:	91178210 	add	x16, x16, #0x5e0
    bdec:	d61f0220 	br	x17

000000000000bdf0 <code_240@plt>:
    bdf0:	d00000d0 	adrp	x16, 25000 <code_1063@Base>
    bdf4:	f942f611 	ldr	x17, [x16, #1512]
    bdf8:	9117a210 	add	x16, x16, #0x5e8
    bdfc:	d61f0220 	br	x17

000000000000be00 <code_203@plt>:
    be00:	d00000d0 	adrp	x16, 25000 <code_1063@Base>
    be04:	f942fa11 	ldr	x17, [x16, #1520]
    be08:	9117c210 	add	x16, x16, #0x5f0
    be0c:	d61f0220 	br	x17

000000000000be10 <code_307@plt>:
    be10:	d00000d0 	adrp	x16, 25000 <code_1063@Base>
    be14:	f942fe11 	ldr	x17, [x16, #1528]
    be18:	9117e210 	add	x16, x16, #0x5f8
    be1c:	d61f0220 	br	x17

000000000000be20 <code_15@plt>:
    be20:	d00000d0 	adrp	x16, 25000 <code_1063@Base>
    be24:	f9430211 	ldr	x17, [x16, #1536]
    be28:	91180210 	add	x16, x16, #0x600
    be2c:	d61f0220 	br	x17

000000000000be30 <code_201@plt>:
    be30:	d00000d0 	adrp	x16, 25000 <code_1063@Base>
    be34:	f9430611 	ldr	x17, [x16, #1544]
    be38:	91182210 	add	x16, x16, #0x608
    be3c:	d61f0220 	br	x17

000000000000be40 <code_876@plt>:
    be40:	d00000d0 	adrp	x16, 25000 <code_1063@Base>
    be44:	f9430a11 	ldr	x17, [x16, #1552]
    be48:	91184210 	add	x16, x16, #0x610
    be4c:	d61f0220 	br	x17

000000000000be50 <code_1194@plt>:
    be50:	d00000d0 	adrp	x16, 25000 <code_1063@Base>
    be54:	f9430e11 	ldr	x17, [x16, #1560]
    be58:	91186210 	add	x16, x16, #0x618
    be5c:	d61f0220 	br	x17

000000000000be60 <code_1345@plt>:
    be60:	d00000d0 	adrp	x16, 25000 <code_1063@Base>
    be64:	f9431211 	ldr	x17, [x16, #1568]
    be68:	91188210 	add	x16, x16, #0x620
    be6c:	d61f0220 	br	x17

000000000000be70 <code_1137@plt>:
    be70:	d00000d0 	adrp	x16, 25000 <code_1063@Base>
    be74:	f9431611 	ldr	x17, [x16, #1576]
    be78:	9118a210 	add	x16, x16, #0x628
    be7c:	d61f0220 	br	x17

000000000000be80 <code_56@plt>:
    be80:	d00000d0 	adrp	x16, 25000 <code_1063@Base>
    be84:	f9431a11 	ldr	x17, [x16, #1584]
    be88:	9118c210 	add	x16, x16, #0x630
    be8c:	d61f0220 	br	x17

000000000000be90 <code_1308@plt>:
    be90:	d00000d0 	adrp	x16, 25000 <code_1063@Base>
    be94:	f9431e11 	ldr	x17, [x16, #1592]
    be98:	9118e210 	add	x16, x16, #0x638
    be9c:	d61f0220 	br	x17

000000000000bea0 <code_1133@plt>:
    bea0:	d00000d0 	adrp	x16, 25000 <code_1063@Base>
    bea4:	f9432211 	ldr	x17, [x16, #1600]
    bea8:	91190210 	add	x16, x16, #0x640
    beac:	d61f0220 	br	x17

000000000000beb0 <code_1347@plt>:
    beb0:	d00000d0 	adrp	x16, 25000 <code_1063@Base>
    beb4:	f9432611 	ldr	x17, [x16, #1608]
    beb8:	91192210 	add	x16, x16, #0x648
    bebc:	d61f0220 	br	x17

000000000000bec0 <code_807@plt>:
    bec0:	d00000d0 	adrp	x16, 25000 <code_1063@Base>
    bec4:	f9432a11 	ldr	x17, [x16, #1616]
    bec8:	91194210 	add	x16, x16, #0x650
    becc:	d61f0220 	br	x17

000000000000bed0 <code_842@plt>:
    bed0:	d00000d0 	adrp	x16, 25000 <code_1063@Base>
    bed4:	f9432e11 	ldr	x17, [x16, #1624]
    bed8:	91196210 	add	x16, x16, #0x658
    bedc:	d61f0220 	br	x17

000000000000bee0 <code_885@plt>:
    bee0:	d00000d0 	adrp	x16, 25000 <code_1063@Base>
    bee4:	f9433211 	ldr	x17, [x16, #1632]
    bee8:	91198210 	add	x16, x16, #0x660
    beec:	d61f0220 	br	x17

000000000000bef0 <code_1198@plt>:
    bef0:	d00000d0 	adrp	x16, 25000 <code_1063@Base>
    bef4:	f9433611 	ldr	x17, [x16, #1640]
    bef8:	9119a210 	add	x16, x16, #0x668
    befc:	d61f0220 	br	x17

000000000000bf00 <code_1388@plt>:
    bf00:	d00000d0 	adrp	x16, 25000 <code_1063@Base>
    bf04:	f9433a11 	ldr	x17, [x16, #1648]
    bf08:	9119c210 	add	x16, x16, #0x670
    bf0c:	d61f0220 	br	x17

000000000000bf10 <code_1380@plt>:
    bf10:	d00000d0 	adrp	x16, 25000 <code_1063@Base>
    bf14:	f9433e11 	ldr	x17, [x16, #1656]
    bf18:	9119e210 	add	x16, x16, #0x678
    bf1c:	d61f0220 	br	x17

000000000000bf20 <code_439@plt>:
    bf20:	d00000d0 	adrp	x16, 25000 <code_1063@Base>
    bf24:	f9434211 	ldr	x17, [x16, #1664]
    bf28:	911a0210 	add	x16, x16, #0x680
    bf2c:	d61f0220 	br	x17

000000000000bf30 <code_437@plt>:
    bf30:	d00000d0 	adrp	x16, 25000 <code_1063@Base>
    bf34:	f9434611 	ldr	x17, [x16, #1672]
    bf38:	911a2210 	add	x16, x16, #0x688
    bf3c:	d61f0220 	br	x17

000000000000bf40 <code_470@plt>:
    bf40:	d00000d0 	adrp	x16, 25000 <code_1063@Base>
    bf44:	f9434a11 	ldr	x17, [x16, #1680]
    bf48:	911a4210 	add	x16, x16, #0x690
    bf4c:	d61f0220 	br	x17

000000000000bf50 <code_433@plt>:
    bf50:	d00000d0 	adrp	x16, 25000 <code_1063@Base>
    bf54:	f9434e11 	ldr	x17, [x16, #1688]
    bf58:	911a6210 	add	x16, x16, #0x698
    bf5c:	d61f0220 	br	x17

000000000000bf60 <code_1445@plt>:
    bf60:	d00000d0 	adrp	x16, 25000 <code_1063@Base>
    bf64:	f9435211 	ldr	x17, [x16, #1696]
    bf68:	911a8210 	add	x16, x16, #0x6a0
    bf6c:	d61f0220 	br	x17

000000000000bf70 <code_340@plt>:
    bf70:	d00000d0 	adrp	x16, 25000 <code_1063@Base>
    bf74:	f9435611 	ldr	x17, [x16, #1704]
    bf78:	911aa210 	add	x16, x16, #0x6a8
    bf7c:	d61f0220 	br	x17

000000000000bf80 <code_1255@plt>:
    bf80:	d00000d0 	adrp	x16, 25000 <code_1063@Base>
    bf84:	f9435a11 	ldr	x17, [x16, #1712]
    bf88:	911ac210 	add	x16, x16, #0x6b0
    bf8c:	d61f0220 	br	x17

000000000000bf90 <code_1218@plt>:
    bf90:	d00000d0 	adrp	x16, 25000 <code_1063@Base>
    bf94:	f9435e11 	ldr	x17, [x16, #1720]
    bf98:	911ae210 	add	x16, x16, #0x6b8
    bf9c:	d61f0220 	br	x17

000000000000bfa0 <code_1386@plt>:
    bfa0:	d00000d0 	adrp	x16, 25000 <code_1063@Base>
    bfa4:	f9436211 	ldr	x17, [x16, #1728]
    bfa8:	911b0210 	add	x16, x16, #0x6c0
    bfac:	d61f0220 	br	x17

000000000000bfb0 <code_956@plt>:
    bfb0:	d00000d0 	adrp	x16, 25000 <code_1063@Base>
    bfb4:	f9436611 	ldr	x17, [x16, #1736]
    bfb8:	911b2210 	add	x16, x16, #0x6c8
    bfbc:	d61f0220 	br	x17

000000000000bfc0 <code_946@plt>:
    bfc0:	d00000d0 	adrp	x16, 25000 <code_1063@Base>
    bfc4:	f9436a11 	ldr	x17, [x16, #1744]
    bfc8:	911b4210 	add	x16, x16, #0x6d0
    bfcc:	d61f0220 	br	x17

000000000000bfd0 <code_993@plt>:
    bfd0:	d00000d0 	adrp	x16, 25000 <code_1063@Base>
    bfd4:	f9436e11 	ldr	x17, [x16, #1752]
    bfd8:	911b6210 	add	x16, x16, #0x6d8
    bfdc:	d61f0220 	br	x17

000000000000bfe0 <code_1212@plt>:
    bfe0:	d00000d0 	adrp	x16, 25000 <code_1063@Base>
    bfe4:	f9437211 	ldr	x17, [x16, #1760]
    bfe8:	911b8210 	add	x16, x16, #0x6e0
    bfec:	d61f0220 	br	x17

000000000000bff0 <code_944@plt>:
    bff0:	d00000d0 	adrp	x16, 25000 <code_1063@Base>
    bff4:	f9437611 	ldr	x17, [x16, #1768]
    bff8:	911ba210 	add	x16, x16, #0x6e8
    bffc:	d61f0220 	br	x17

000000000000c000 <code_995@plt>:
    c000:	b00000d0 	adrp	x16, 25000 <code_1063@Base>
    c004:	f9437a11 	ldr	x17, [x16, #1776]
    c008:	911bc210 	add	x16, x16, #0x6f0
    c00c:	d61f0220 	br	x17

000000000000c010 <code_97@plt>:
    c010:	b00000d0 	adrp	x16, 25000 <code_1063@Base>
    c014:	f9437e11 	ldr	x17, [x16, #1784]
    c018:	911be210 	add	x16, x16, #0x6f8
    c01c:	d61f0220 	br	x17

000000000000c020 <code_1251@plt>:
    c020:	b00000d0 	adrp	x16, 25000 <code_1063@Base>
    c024:	f9438211 	ldr	x17, [x16, #1792]
    c028:	911c0210 	add	x16, x16, #0x700
    c02c:	d61f0220 	br	x17

000000000000c030 <code_1253@plt>:
    c030:	b00000d0 	adrp	x16, 25000 <code_1063@Base>
    c034:	f9438611 	ldr	x17, [x16, #1800]
    c038:	911c2210 	add	x16, x16, #0x708
    c03c:	d61f0220 	br	x17

000000000000c040 <code_983@plt>:
    c040:	b00000d0 	adrp	x16, 25000 <code_1063@Base>
    c044:	f9438a11 	ldr	x17, [x16, #1808]
    c048:	911c4210 	add	x16, x16, #0x710
    c04c:	d61f0220 	br	x17

000000000000c050 <code_95@plt>:
    c050:	b00000d0 	adrp	x16, 25000 <code_1063@Base>
    c054:	f9438e11 	ldr	x17, [x16, #1816]
    c058:	911c6210 	add	x16, x16, #0x718
    c05c:	d61f0220 	br	x17

000000000000c060 <code_985@plt>:
    c060:	b00000d0 	adrp	x16, 25000 <code_1063@Base>
    c064:	f9439211 	ldr	x17, [x16, #1824]
    c068:	911c8210 	add	x16, x16, #0x720
    c06c:	d61f0220 	br	x17

000000000000c070 <code_144@plt>:
    c070:	b00000d0 	adrp	x16, 25000 <code_1063@Base>
    c074:	f9439611 	ldr	x17, [x16, #1832]
    c078:	911ca210 	add	x16, x16, #0x728
    c07c:	d61f0220 	br	x17

000000000000c080 <code_981@plt>:
    c080:	b00000d0 	adrp	x16, 25000 <code_1063@Base>
    c084:	f9439a11 	ldr	x17, [x16, #1840]
    c088:	911cc210 	add	x16, x16, #0x730
    c08c:	d61f0220 	br	x17

000000000000c090 <code_142@plt>:
    c090:	b00000d0 	adrp	x16, 25000 <code_1063@Base>
    c094:	f9439e11 	ldr	x17, [x16, #1848]
    c098:	911ce210 	add	x16, x16, #0x738
    c09c:	d61f0220 	br	x17

000000000000c0a0 <code_109@plt>:
    c0a0:	b00000d0 	adrp	x16, 25000 <code_1063@Base>
    c0a4:	f943a211 	ldr	x17, [x16, #1856]
    c0a8:	911d0210 	add	x16, x16, #0x740
    c0ac:	d61f0220 	br	x17

000000000000c0b0 <code_590@plt>:
    c0b0:	b00000d0 	adrp	x16, 25000 <code_1063@Base>
    c0b4:	f943a611 	ldr	x17, [x16, #1864]
    c0b8:	911d2210 	add	x16, x16, #0x748
    c0bc:	d61f0220 	br	x17

000000000000c0c0 <code_557@plt>:
    c0c0:	b00000d0 	adrp	x16, 25000 <code_1063@Base>
    c0c4:	f943aa11 	ldr	x17, [x16, #1872]
    c0c8:	911d4210 	add	x16, x16, #0x750
    c0cc:	d61f0220 	br	x17

000000000000c0d0 <code_518@plt>:
    c0d0:	b00000d0 	adrp	x16, 25000 <code_1063@Base>
    c0d4:	f943ae11 	ldr	x17, [x16, #1880]
    c0d8:	911d6210 	add	x16, x16, #0x758
    c0dc:	d61f0220 	br	x17

000000000000c0e0 <code_598@plt>:
    c0e0:	b00000d0 	adrp	x16, 25000 <code_1063@Base>
    c0e4:	f943b211 	ldr	x17, [x16, #1888]
    c0e8:	911d8210 	add	x16, x16, #0x760
    c0ec:	d61f0220 	br	x17

000000000000c0f0 <code_185@plt>:
    c0f0:	b00000d0 	adrp	x16, 25000 <code_1063@Base>
    c0f4:	f943b611 	ldr	x17, [x16, #1896]
    c0f8:	911da210 	add	x16, x16, #0x768
    c0fc:	d61f0220 	br	x17

000000000000c100 <code_1148@plt>:
    c100:	b00000d0 	adrp	x16, 25000 <code_1063@Base>
    c104:	f943ba11 	ldr	x17, [x16, #1904]
    c108:	911dc210 	add	x16, x16, #0x770
    c10c:	d61f0220 	br	x17

000000000000c110 <code_630@plt>:
    c110:	b00000d0 	adrp	x16, 25000 <code_1063@Base>
    c114:	f943be11 	ldr	x17, [x16, #1912]
    c118:	911de210 	add	x16, x16, #0x778
    c11c:	d61f0220 	br	x17

000000000000c120 <code_183@plt>:
    c120:	b00000d0 	adrp	x16, 25000 <code_1063@Base>
    c124:	f943c211 	ldr	x17, [x16, #1920]
    c128:	911e0210 	add	x16, x16, #0x780
    c12c:	d61f0220 	br	x17

000000000000c130 <code_648@plt>:
    c130:	b00000d0 	adrp	x16, 25000 <code_1063@Base>
    c134:	f943c611 	ldr	x17, [x16, #1928]
    c138:	911e2210 	add	x16, x16, #0x788
    c13c:	d61f0220 	br	x17

000000000000c140 <code_632@plt>:
    c140:	b00000d0 	adrp	x16, 25000 <code_1063@Base>
    c144:	f943ca11 	ldr	x17, [x16, #1936]
    c148:	911e4210 	add	x16, x16, #0x790
    c14c:	d61f0220 	br	x17

000000000000c150 <code_189@plt>:
    c150:	b00000d0 	adrp	x16, 25000 <code_1063@Base>
    c154:	f943ce11 	ldr	x17, [x16, #1944]
    c158:	911e6210 	add	x16, x16, #0x798
    c15c:	d61f0220 	br	x17

000000000000c160 <code_634@plt>:
    c160:	b00000d0 	adrp	x16, 25000 <code_1063@Base>
    c164:	f943d211 	ldr	x17, [x16, #1952]
    c168:	911e8210 	add	x16, x16, #0x7a0
    c16c:	d61f0220 	br	x17

000000000000c170 <code_646@plt>:
    c170:	b00000d0 	adrp	x16, 25000 <code_1063@Base>
    c174:	f943d611 	ldr	x17, [x16, #1960]
    c178:	911ea210 	add	x16, x16, #0x7a8
    c17c:	d61f0220 	br	x17

000000000000c180 <code_1189@plt>:
    c180:	b00000d0 	adrp	x16, 25000 <code_1063@Base>
    c184:	f943da11 	ldr	x17, [x16, #1968]
    c188:	911ec210 	add	x16, x16, #0x7b0
    c18c:	d61f0220 	br	x17

000000000000c190 <code_1090@plt>:
    c190:	b00000d0 	adrp	x16, 25000 <code_1063@Base>
    c194:	f943de11 	ldr	x17, [x16, #1976]
    c198:	911ee210 	add	x16, x16, #0x7b8
    c19c:	d61f0220 	br	x17

000000000000c1a0 <code_609@plt>:
    c1a0:	b00000d0 	adrp	x16, 25000 <code_1063@Base>
    c1a4:	f943e211 	ldr	x17, [x16, #1984]
    c1a8:	911f0210 	add	x16, x16, #0x7c0
    c1ac:	d61f0220 	br	x17

000000000000c1b0 <code_683@plt>:
    c1b0:	b00000d0 	adrp	x16, 25000 <code_1063@Base>
    c1b4:	f943e611 	ldr	x17, [x16, #1992]
    c1b8:	911f2210 	add	x16, x16, #0x7c8
    c1bc:	d61f0220 	br	x17

000000000000c1c0 <code_685@plt>:
    c1c0:	b00000d0 	adrp	x16, 25000 <code_1063@Base>
    c1c4:	f943ea11 	ldr	x17, [x16, #2000]
    c1c8:	911f4210 	add	x16, x16, #0x7d0
    c1cc:	d61f0220 	br	x17

000000000000c1d0 <code_1283@plt>:
    c1d0:	b00000d0 	adrp	x16, 25000 <code_1063@Base>
    c1d4:	f943ee11 	ldr	x17, [x16, #2008]
    c1d8:	911f6210 	add	x16, x16, #0x7d8
    c1dc:	d61f0220 	br	x17

000000000000c1e0 <code_1051@plt>:
    c1e0:	b00000d0 	adrp	x16, 25000 <code_1063@Base>
    c1e4:	f943f211 	ldr	x17, [x16, #2016]
    c1e8:	911f8210 	add	x16, x16, #0x7e0
    c1ec:	d61f0220 	br	x17

000000000000c1f0 <code_235@plt>:
    c1f0:	b00000d0 	adrp	x16, 25000 <code_1063@Base>
    c1f4:	f943f611 	ldr	x17, [x16, #2024]
    c1f8:	911fa210 	add	x16, x16, #0x7e8
    c1fc:	d61f0220 	br	x17

000000000000c200 <code_512@plt>:
    c200:	b00000d0 	adrp	x16, 25000 <code_1063@Base>
    c204:	f943fa11 	ldr	x17, [x16, #2032]
    c208:	911fc210 	add	x16, x16, #0x7f0
    c20c:	d61f0220 	br	x17

000000000000c210 <code_272@plt>:
    c210:	b00000d0 	adrp	x16, 25000 <code_1063@Base>
    c214:	f943fe11 	ldr	x17, [x16, #2040]
    c218:	911fe210 	add	x16, x16, #0x7f8
    c21c:	d61f0220 	br	x17

000000000000c220 <code_1285@plt>:
    c220:	b00000d0 	adrp	x16, 25000 <code_1063@Base>
    c224:	f9440211 	ldr	x17, [x16, #2048]
    c228:	91200210 	add	x16, x16, #0x800
    c22c:	d61f0220 	br	x17

000000000000c230 <code_101@plt>:
    c230:	b00000d0 	adrp	x16, 25000 <code_1063@Base>
    c234:	f9440611 	ldr	x17, [x16, #2056]
    c238:	91202210 	add	x16, x16, #0x808
    c23c:	d61f0220 	br	x17

000000000000c240 <code_551@plt>:
    c240:	b00000d0 	adrp	x16, 25000 <code_1063@Base>
    c244:	f9440a11 	ldr	x17, [x16, #2064]
    c248:	91204210 	add	x16, x16, #0x810
    c24c:	d61f0220 	br	x17

000000000000c250 <code_710@plt>:
    c250:	b00000d0 	adrp	x16, 25000 <code_1063@Base>
    c254:	f9440e11 	ldr	x17, [x16, #2072]
    c258:	91206210 	add	x16, x16, #0x818
    c25c:	d61f0220 	br	x17

000000000000c260 <code_748@plt>:
    c260:	b00000d0 	adrp	x16, 25000 <code_1063@Base>
    c264:	f9441211 	ldr	x17, [x16, #2080]
    c268:	91208210 	add	x16, x16, #0x820
    c26c:	d61f0220 	br	x17

000000000000c270 <code_278@plt>:
    c270:	b00000d0 	adrp	x16, 25000 <code_1063@Base>
    c274:	f9441611 	ldr	x17, [x16, #2088]
    c278:	9120a210 	add	x16, x16, #0x828
    c27c:	d61f0220 	br	x17

000000000000c280 <code_239@plt>:
    c280:	b00000d0 	adrp	x16, 25000 <code_1063@Base>
    c284:	f9441a11 	ldr	x17, [x16, #2096]
    c288:	9120c210 	add	x16, x16, #0x830
    c28c:	d61f0220 	br	x17

000000000000c290 <code_712@plt>:
    c290:	b00000d0 	adrp	x16, 25000 <code_1063@Base>
    c294:	f9441e11 	ldr	x17, [x16, #2104]
    c298:	9120e210 	add	x16, x16, #0x838
    c29c:	d61f0220 	br	x17

000000000000c2a0 <code_709@plt>:
    c2a0:	b00000d0 	adrp	x16, 25000 <code_1063@Base>
    c2a4:	f9442211 	ldr	x17, [x16, #2112]
    c2a8:	91210210 	add	x16, x16, #0x840
    c2ac:	d61f0220 	br	x17

000000000000c2b0 <code_1287@plt>:
    c2b0:	b00000d0 	adrp	x16, 25000 <code_1063@Base>
    c2b4:	f9442611 	ldr	x17, [x16, #2120]
    c2b8:	91212210 	add	x16, x16, #0x848
    c2bc:	d61f0220 	br	x17

000000000000c2c0 <code_25@plt>:
    c2c0:	b00000d0 	adrp	x16, 25000 <code_1063@Base>
    c2c4:	f9442a11 	ldr	x17, [x16, #2128]
    c2c8:	91214210 	add	x16, x16, #0x850
    c2cc:	d61f0220 	br	x17

000000000000c2d0 <code_744@plt>:
    c2d0:	b00000d0 	adrp	x16, 25000 <code_1063@Base>
    c2d4:	f9442e11 	ldr	x17, [x16, #2136]
    c2d8:	91216210 	add	x16, x16, #0x858
    c2dc:	d61f0220 	br	x17

000000000000c2e0 <code_707@plt>:
    c2e0:	b00000d0 	adrp	x16, 25000 <code_1063@Base>
    c2e4:	f9443211 	ldr	x17, [x16, #2144]
    c2e8:	91218210 	add	x16, x16, #0x860
    c2ec:	d61f0220 	br	x17

000000000000c2f0 <code_1016@plt>:
    c2f0:	b00000d0 	adrp	x16, 25000 <code_1063@Base>
    c2f4:	f9443611 	ldr	x17, [x16, #2152]
    c2f8:	9121a210 	add	x16, x16, #0x868
    c2fc:	d61f0220 	br	x17

000000000000c300 <code_1185@plt>:
    c300:	b00000d0 	adrp	x16, 25000 <code_1063@Base>
    c304:	f9443a11 	ldr	x17, [x16, #2160]
    c308:	9121c210 	add	x16, x16, #0x870
    c30c:	d61f0220 	br	x17

000000000000c310 <code_1012@plt>:
    c310:	b00000d0 	adrp	x16, 25000 <code_1063@Base>
    c314:	f9443e11 	ldr	x17, [x16, #2168]
    c318:	9121e210 	add	x16, x16, #0x878
    c31c:	d61f0220 	br	x17

000000000000c320 <code_783@plt>:
    c320:	b00000d0 	adrp	x16, 25000 <code_1063@Base>
    c324:	f9444211 	ldr	x17, [x16, #2176]
    c328:	91220210 	add	x16, x16, #0x880
    c32c:	d61f0220 	br	x17

000000000000c330 <code_396@plt>:
    c330:	b00000d0 	adrp	x16, 25000 <code_1063@Base>
    c334:	f9444611 	ldr	x17, [x16, #2184]
    c338:	91222210 	add	x16, x16, #0x888
    c33c:	d61f0220 	br	x17

000000000000c340 <code_318@plt>:
    c340:	b00000d0 	adrp	x16, 25000 <code_1063@Base>
    c344:	f9444a11 	ldr	x17, [x16, #2192]
    c348:	91224210 	add	x16, x16, #0x890
    c34c:	d61f0220 	br	x17

000000000000c350 <code_355@plt>:
    c350:	b00000d0 	adrp	x16, 25000 <code_1063@Base>
    c354:	f9444e11 	ldr	x17, [x16, #2200]
    c358:	91226210 	add	x16, x16, #0x898
    c35c:	d61f0220 	br	x17

000000000000c360 <code_27@plt>:
    c360:	b00000d0 	adrp	x16, 25000 <code_1063@Base>
    c364:	f9445211 	ldr	x17, [x16, #2208]
    c368:	91228210 	add	x16, x16, #0x8a0
    c36c:	d61f0220 	br	x17

000000000000c370 <code_1333@plt>:
    c370:	b00000d0 	adrp	x16, 25000 <code_1063@Base>
    c374:	f9445611 	ldr	x17, [x16, #2216]
    c378:	9122a210 	add	x16, x16, #0x8a8
    c37c:	d61f0220 	br	x17

000000000000c380 <code_23@plt>:
    c380:	b00000d0 	adrp	x16, 25000 <code_1063@Base>
    c384:	f9445a11 	ldr	x17, [x16, #2224]
    c388:	9122c210 	add	x16, x16, #0x8b0
    c38c:	d61f0220 	br	x17

000000000000c390 <code_1337@plt>:
    c390:	b00000d0 	adrp	x16, 25000 <code_1063@Base>
    c394:	f9445e11 	ldr	x17, [x16, #2232]
    c398:	9122e210 	add	x16, x16, #0x8b8
    c39c:	d61f0220 	br	x17

000000000000c3a0 <code_822@plt>:
    c3a0:	b00000d0 	adrp	x16, 25000 <code_1063@Base>
    c3a4:	f9446211 	ldr	x17, [x16, #2240]
    c3a8:	91230210 	add	x16, x16, #0x8c0
    c3ac:	d61f0220 	br	x17

000000000000c3b0 <code_1370@plt>:
    c3b0:	b00000d0 	adrp	x16, 25000 <code_1063@Base>
    c3b4:	f9446611 	ldr	x17, [x16, #2248]
    c3b8:	91232210 	add	x16, x16, #0x8c8
    c3bc:	d61f0220 	br	x17

000000000000c3c0 <code_1335@plt>:
    c3c0:	b00000d0 	adrp	x16, 25000 <code_1063@Base>
    c3c4:	f9446a11 	ldr	x17, [x16, #2256]
    c3c8:	91234210 	add	x16, x16, #0x8d0
    c3cc:	d61f0220 	br	x17

000000000000c3d0 <code_872@plt>:
    c3d0:	b00000d0 	adrp	x16, 25000 <code_1063@Base>
    c3d4:	f9446e11 	ldr	x17, [x16, #2264]
    c3d8:	91236210 	add	x16, x16, #0x8d8
    c3dc:	d61f0220 	br	x17

000000000000c3e0 <code_1374@plt>:
    c3e0:	b00000d0 	adrp	x16, 25000 <code_1063@Base>
    c3e4:	f9447211 	ldr	x17, [x16, #2272]
    c3e8:	91238210 	add	x16, x16, #0x8e0
    c3ec:	d61f0220 	br	x17

000000000000c3f0 <code_1085@plt>:
    c3f0:	b00000d0 	adrp	x16, 25000 <code_1063@Base>
    c3f4:	f9447611 	ldr	x17, [x16, #2280]
    c3f8:	9123a210 	add	x16, x16, #0x8e8
    c3fc:	d61f0220 	br	x17

000000000000c400 <code_870@plt>:
    c400:	b00000d0 	adrp	x16, 25000 <code_1063@Base>
    c404:	f9447a11 	ldr	x17, [x16, #2288]
    c408:	9123c210 	add	x16, x16, #0x8f0
    c40c:	d61f0220 	br	x17

000000000000c410 <code_469@plt>:
    c410:	b00000d0 	adrp	x16, 25000 <code_1063@Base>
    c414:	f9447e11 	ldr	x17, [x16, #2296]
    c418:	9123e210 	add	x16, x16, #0x8f8
    c41c:	d61f0220 	br	x17

000000000000c420 <code_467@plt>:
    c420:	b00000d0 	adrp	x16, 25000 <code_1063@Base>
    c424:	f9448211 	ldr	x17, [x16, #2304]
    c428:	91240210 	add	x16, x16, #0x900
    c42c:	d61f0220 	br	x17

000000000000c430 <code_351@plt>:
    c430:	b00000d0 	adrp	x16, 25000 <code_1063@Base>
    c434:	f9448611 	ldr	x17, [x16, #2312]
    c438:	91242210 	add	x16, x16, #0x908
    c43c:	d61f0220 	br	x17

000000000000c440 <code_919@plt>:
    c440:	b00000d0 	adrp	x16, 25000 <code_1063@Base>
    c444:	f9448a11 	ldr	x17, [x16, #2320]
    c448:	91244210 	add	x16, x16, #0x910
    c44c:	d61f0220 	br	x17

000000000000c450 <code_1413@plt>:
    c450:	b00000d0 	adrp	x16, 25000 <code_1063@Base>
    c454:	f9448e11 	ldr	x17, [x16, #2328]
    c458:	91246210 	add	x16, x16, #0x918
    c45c:	d61f0220 	br	x17

000000000000c460 <code_920@plt>:
    c460:	b00000d0 	adrp	x16, 25000 <code_1063@Base>
    c464:	f9449211 	ldr	x17, [x16, #2336]
    c468:	91248210 	add	x16, x16, #0x920
    c46c:	d61f0220 	br	x17

000000000000c470 <code_1450@plt>:
    c470:	b00000d0 	adrp	x16, 25000 <code_1063@Base>
    c474:	f9449611 	ldr	x17, [x16, #2344]
    c478:	9124a210 	add	x16, x16, #0x928
    c47c:	d61f0220 	br	x17

000000000000c480 <code_969@plt>:
    c480:	b00000d0 	adrp	x16, 25000 <code_1063@Base>
    c484:	f9449a11 	ldr	x17, [x16, #2352]
    c488:	9124c210 	add	x16, x16, #0x930
    c48c:	d61f0220 	br	x17

000000000000c490 <code_1415@plt>:
    c490:	b00000d0 	adrp	x16, 25000 <code_1063@Base>
    c494:	f9449e11 	ldr	x17, [x16, #2360]
    c498:	9124e210 	add	x16, x16, #0x938
    c49c:	d61f0220 	br	x17

000000000000c4a0 <code_999@plt>:
    c4a0:	b00000d0 	adrp	x16, 25000 <code_1063@Base>
    c4a4:	f944a211 	ldr	x17, [x16, #2368]
    c4a8:	91250210 	add	x16, x16, #0x940
    c4ac:	d61f0220 	br	x17

000000000000c4b0 <code_952@plt>:
    c4b0:	b00000d0 	adrp	x16, 25000 <code_1063@Base>
    c4b4:	f944a611 	ldr	x17, [x16, #2376]
    c4b8:	91252210 	add	x16, x16, #0x948
    c4bc:	d61f0220 	br	x17

000000000000c4c0 <code_954@plt>:
    c4c0:	b00000d0 	adrp	x16, 25000 <code_1063@Base>
    c4c4:	f944aa11 	ldr	x17, [x16, #2384]
    c4c8:	91254210 	add	x16, x16, #0x950
    c4cc:	d61f0220 	br	x17

000000000000c4d0 <code_117@plt>:
    c4d0:	b00000d0 	adrp	x16, 25000 <code_1063@Base>
    c4d4:	f944ae11 	ldr	x17, [x16, #2392]
    c4d8:	91256210 	add	x16, x16, #0x958
    c4dc:	d61f0220 	br	x17

000000000000c4e0 <code_567@plt>:
    c4e0:	b00000d0 	adrp	x16, 25000 <code_1063@Base>
    c4e4:	f944b211 	ldr	x17, [x16, #2400]
    c4e8:	91258210 	add	x16, x16, #0x960
    c4ec:	d61f0220 	br	x17

000000000000c4f0 <code_1120@plt>:
    c4f0:	b00000d0 	adrp	x16, 25000 <code_1063@Base>
    c4f4:	f944b611 	ldr	x17, [x16, #2408]
    c4f8:	9125a210 	add	x16, x16, #0x968
    c4fc:	d61f0220 	br	x17

000000000000c500 <code_154@plt>:
    c500:	b00000d0 	adrp	x16, 25000 <code_1063@Base>
    c504:	f944ba11 	ldr	x17, [x16, #2416]
    c508:	9125c210 	add	x16, x16, #0x970
    c50c:	d61f0220 	br	x17

000000000000c510 <code_950@plt>:
    c510:	b00000d0 	adrp	x16, 25000 <code_1063@Base>
    c514:	f944be11 	ldr	x17, [x16, #2424]
    c518:	9125e210 	add	x16, x16, #0x978
    c51c:	d61f0220 	br	x17

000000000000c520 <code_115@plt>:
    c520:	b00000d0 	adrp	x16, 25000 <code_1063@Base>
    c524:	f944c211 	ldr	x17, [x16, #2432]
    c528:	91260210 	add	x16, x16, #0x980
    c52c:	d61f0220 	br	x17

000000000000c530 <code_1454@plt>:
    c530:	b00000d0 	adrp	x16, 25000 <code_1063@Base>
    c534:	f944c611 	ldr	x17, [x16, #2440]
    c538:	91262210 	add	x16, x16, #0x988
    c53c:	d61f0220 	br	x17

000000000000c540 <code_1419@plt>:
    c540:	b00000d0 	adrp	x16, 25000 <code_1063@Base>
    c544:	f944ca11 	ldr	x17, [x16, #2448]
    c548:	91264210 	add	x16, x16, #0x990
    c54c:	d61f0220 	br	x17

000000000000c550 <code_152@plt>:
    c550:	b00000d0 	adrp	x16, 25000 <code_1063@Base>
    c554:	f944ce11 	ldr	x17, [x16, #2456]
    c558:	91266210 	add	x16, x16, #0x998
    c55c:	d61f0220 	br	x17

000000000000c560 <code_528@plt>:
    c560:	b00000d0 	adrp	x16, 25000 <code_1063@Base>
    c564:	f944d211 	ldr	x17, [x16, #2464]
    c568:	91268210 	add	x16, x16, #0x9a0
    c56c:	d61f0220 	br	x17

000000000000c570 <code_563@plt>:
    c570:	b00000d0 	adrp	x16, 25000 <code_1063@Base>
    c574:	f944d611 	ldr	x17, [x16, #2472]
    c578:	9126a210 	add	x16, x16, #0x9a8
    c57c:	d61f0220 	br	x17

000000000000c580 <code_113@plt>:
    c580:	b00000d0 	adrp	x16, 25000 <code_1063@Base>
    c584:	f944da11 	ldr	x17, [x16, #2480]
    c588:	9126c210 	add	x16, x16, #0x9b0
    c58c:	d61f0220 	br	x17

000000000000c590 <code_111@plt>:
    c590:	b00000d0 	adrp	x16, 25000 <code_1063@Base>
    c594:	f944de11 	ldr	x17, [x16, #2488]
    c598:	9126e210 	add	x16, x16, #0x9b8
    c59c:	d61f0220 	br	x17

000000000000c5a0 <code_561@plt>:
    c5a0:	b00000d0 	adrp	x16, 25000 <code_1063@Base>
    c5a4:	f944e211 	ldr	x17, [x16, #2496]
    c5a8:	91270210 	add	x16, x16, #0x9c0
    c5ac:	d61f0220 	br	x17

000000000000c5b0 <code_62@plt>:
    c5b0:	b00000d0 	adrp	x16, 25000 <code_1063@Base>
    c5b4:	f944e611 	ldr	x17, [x16, #2504]
    c5b8:	91272210 	add	x16, x16, #0x9c8
    c5bc:	d61f0220 	br	x17

000000000000c5c0 <code_424@plt>:
    c5c0:	b00000d0 	adrp	x16, 25000 <code_1063@Base>
    c5c4:	f944ea11 	ldr	x17, [x16, #2512]
    c5c8:	91274210 	add	x16, x16, #0x9d0
    c5cc:	d61f0220 	br	x17

000000000000c5d0 <code_461@plt>:
    c5d0:	b00000d0 	adrp	x16, 25000 <code_1063@Base>
    c5d4:	f944ee11 	ldr	x17, [x16, #2520]
    c5d8:	91276210 	add	x16, x16, #0x9d8
    c5dc:	d61f0220 	br	x17

000000000000c5e0 <code_1351@plt>:
    c5e0:	b00000d0 	adrp	x16, 25000 <code_1063@Base>
    c5e4:	f944f211 	ldr	x17, [x16, #2528]
    c5e8:	91278210 	add	x16, x16, #0x9e0
    c5ec:	d61f0220 	br	x17

000000000000c5f0 <code_621@plt>:
    c5f0:	b00000d0 	adrp	x16, 25000 <code_1063@Base>
    c5f4:	f944f611 	ldr	x17, [x16, #2536]
    c5f8:	9127a210 	add	x16, x16, #0x9e8
    c5fc:	d61f0220 	br	x17

000000000000c600 <code_677@plt>:
    c600:	b00000d0 	adrp	x16, 25000 <code_1063@Base>
    c604:	f944fa11 	ldr	x17, [x16, #2544]
    c608:	9127c210 	add	x16, x16, #0x9f0
    c60c:	d61f0220 	br	x17

000000000000c610 <code_158@plt>:
    c610:	b00000d0 	adrp	x16, 25000 <code_1063@Base>
    c614:	f944fe11 	ldr	x17, [x16, #2552]
    c618:	9127e210 	add	x16, x16, #0x9f8
    c61c:	d61f0220 	br	x17

000000000000c620 <code_1316@plt>:
    c620:	b00000d0 	adrp	x16, 25000 <code_1063@Base>
    c624:	f9450211 	ldr	x17, [x16, #2560]
    c628:	91280210 	add	x16, x16, #0xa00
    c62c:	d61f0220 	br	x17

000000000000c630 <code_1353@plt>:
    c630:	b00000d0 	adrp	x16, 25000 <code_1063@Base>
    c634:	f9450611 	ldr	x17, [x16, #2568]
    c638:	91282210 	add	x16, x16, #0xa08
    c63c:	d61f0220 	br	x17

000000000000c640 <code_569@plt>:
    c640:	b00000d0 	adrp	x16, 25000 <code_1063@Base>
    c644:	f9450a11 	ldr	x17, [x16, #2576]
    c648:	91284210 	add	x16, x16, #0xa10
    c64c:	d61f0220 	br	x17

000000000000c650 <code_660@plt>:
    c650:	b00000d0 	adrp	x16, 25000 <code_1063@Base>
    c654:	f9450e11 	ldr	x17, [x16, #2584]
    c658:	91286210 	add	x16, x16, #0xa18
    c65c:	d61f0220 	br	x17

000000000000c660 <code_199@plt>:
    c660:	b00000d0 	adrp	x16, 25000 <code_1063@Base>
    c664:	f9451211 	ldr	x17, [x16, #2592]
    c668:	91288210 	add	x16, x16, #0xa20
    c66c:	d61f0220 	br	x17

000000000000c670 <code_1312@plt>:
    c670:	b00000d0 	adrp	x16, 25000 <code_1063@Base>
    c674:	f9451611 	ldr	x17, [x16, #2600]
    c678:	9128a210 	add	x16, x16, #0xa28
    c67c:	d61f0220 	br	x17

000000000000c680 <code_636@plt>:
    c680:	b00000d0 	adrp	x16, 25000 <code_1063@Base>
    c684:	f9451a11 	ldr	x17, [x16, #2608]
    c688:	9128c210 	add	x16, x16, #0xa30
    c68c:	d61f0220 	br	x17

000000000000c690 <code_1176@plt>:
    c690:	b00000d0 	adrp	x16, 25000 <code_1063@Base>
    c694:	f9451e11 	ldr	x17, [x16, #2616]
    c698:	9128e210 	add	x16, x16, #0xa38
    c69c:	d61f0220 	br	x17

000000000000c6a0 <code_1310@plt>:
    c6a0:	b00000d0 	adrp	x16, 25000 <code_1063@Base>
    c6a4:	f9452211 	ldr	x17, [x16, #2624]
    c6a8:	91290210 	add	x16, x16, #0xa40
    c6ac:	d61f0220 	br	x17

000000000000c6b0 <code_262@plt>:
    c6b0:	b00000d0 	adrp	x16, 25000 <code_1063@Base>
    c6b4:	f9452611 	ldr	x17, [x16, #2632]
    c6b8:	91292210 	add	x16, x16, #0xa48
    c6bc:	d61f0220 	br	x17

000000000000c6c0 <code_520@plt>:
    c6c0:	b00000d0 	adrp	x16, 25000 <code_1063@Base>
    c6c4:	f9452a11 	ldr	x17, [x16, #2640]
    c6c8:	91294210 	add	x16, x16, #0xa50
    c6cc:	d61f0220 	br	x17

000000000000c6d0 <code_260@plt>:
    c6d0:	b00000d0 	adrp	x16, 25000 <code_1063@Base>
    c6d4:	f9452e11 	ldr	x17, [x16, #2648]
    c6d8:	91296210 	add	x16, x16, #0xa58
    c6dc:	d61f0220 	br	x17

000000000000c6e0 <code_757@plt>:
    c6e0:	b00000d0 	adrp	x16, 25000 <code_1063@Base>
    c6e4:	f9453211 	ldr	x17, [x16, #2656]
    c6e8:	91298210 	add	x16, x16, #0xa60
    c6ec:	d61f0220 	br	x17

000000000000c6f0 <code_1027@plt>:
    c6f0:	b00000d0 	adrp	x16, 25000 <code_1063@Base>
    c6f4:	f9453611 	ldr	x17, [x16, #2664]
    c6f8:	9129a210 	add	x16, x16, #0xa68
    c6fc:	d61f0220 	br	x17

000000000000c700 <code_1259@plt>:
    c700:	b00000d0 	adrp	x16, 25000 <code_1063@Base>
    c704:	f9453a11 	ldr	x17, [x16, #2672]
    c708:	9129c210 	add	x16, x16, #0xa70
    c70c:	d61f0220 	br	x17

000000000000c710 <code_1021@plt>:
    c710:	b00000d0 	adrp	x16, 25000 <code_1063@Base>
    c714:	f9453e11 	ldr	x17, [x16, #2680]
    c718:	9129e210 	add	x16, x16, #0xa78
    c71c:	d61f0220 	br	x17

000000000000c720 <code_718@plt>:
    c720:	b00000d0 	adrp	x16, 25000 <code_1063@Base>
    c724:	f9454211 	ldr	x17, [x16, #2688]
    c728:	912a0210 	add	x16, x16, #0xa80
    c72c:	d61f0220 	br	x17

000000000000c730 <code_753@plt>:
    c730:	b00000d0 	adrp	x16, 25000 <code_1063@Base>
    c734:	f9454611 	ldr	x17, [x16, #2696]
    c738:	912a2210 	add	x16, x16, #0xa88
    c73c:	d61f0220 	br	x17

000000000000c740 <code_716@plt>:
    c740:	b00000d0 	adrp	x16, 25000 <code_1063@Base>
    c744:	f9454a11 	ldr	x17, [x16, #2704]
    c748:	912a4210 	add	x16, x16, #0xa90
    c74c:	d61f0220 	br	x17

000000000000c750 <code_751@plt>:
    c750:	b00000d0 	adrp	x16, 25000 <code_1063@Base>
    c754:	f9454e11 	ldr	x17, [x16, #2712]
    c758:	912a6210 	add	x16, x16, #0xa98
    c75c:	d61f0220 	br	x17

000000000000c760 <code_1023@plt>:
    c760:	b00000d0 	adrp	x16, 25000 <code_1063@Base>
    c764:	f9455211 	ldr	x17, [x16, #2720]
    c768:	912a8210 	add	x16, x16, #0xaa0
    c76c:	d61f0220 	br	x17

000000000000c770 <code_760@plt>:
    c770:	b00000d0 	adrp	x16, 25000 <code_1063@Base>
    c774:	f9455611 	ldr	x17, [x16, #2728]
    c778:	912aa210 	add	x16, x16, #0xaa8
    c77c:	d61f0220 	br	x17

000000000000c780 <code_1064@plt>:
    c780:	b00000d0 	adrp	x16, 25000 <code_1063@Base>
    c784:	f9455a11 	ldr	x17, [x16, #2736]
    c788:	912ac210 	add	x16, x16, #0xab0
    c78c:	d61f0220 	br	x17

000000000000c790 <code_794@plt>:
    c790:	b00000d0 	adrp	x16, 25000 <code_1063@Base>
    c794:	f9455e11 	ldr	x17, [x16, #2744]
    c798:	912ae210 	add	x16, x16, #0xab8
    c79c:	d61f0220 	br	x17

000000000000c7a0 <code_796@plt>:
    c7a0:	b00000d0 	adrp	x16, 25000 <code_1063@Base>
    c7a4:	f9456211 	ldr	x17, [x16, #2752]
    c7a8:	912b0210 	add	x16, x16, #0xac0
    c7ac:	d61f0220 	br	x17

000000000000c7b0 <code_329@plt>:
    c7b0:	b00000d0 	adrp	x16, 25000 <code_1063@Base>
    c7b4:	f9456611 	ldr	x17, [x16, #2760]
    c7b8:	912b2210 	add	x16, x16, #0xac8
    c7bc:	d61f0220 	br	x17

000000000000c7c0 <code_5@plt>:
    c7c0:	b00000d0 	adrp	x16, 25000 <code_1063@Base>
    c7c4:	f9456a11 	ldr	x17, [x16, #2768]
    c7c8:	912b4210 	add	x16, x16, #0xad0
    c7cc:	d61f0220 	br	x17

000000000000c7d0 <code_360@plt>:
    c7d0:	b00000d0 	adrp	x16, 25000 <code_1063@Base>
    c7d4:	f9456e11 	ldr	x17, [x16, #2776]
    c7d8:	912b6210 	add	x16, x16, #0xad8
    c7dc:	d61f0220 	br	x17

000000000000c7e0 <code_38@plt>:
    c7e0:	b00000d0 	adrp	x16, 25000 <code_1063@Base>
    c7e4:	f9457211 	ldr	x17, [x16, #2784]
    c7e8:	912b8210 	add	x16, x16, #0xae0
    c7ec:	d61f0220 	br	x17

000000000000c7f0 <code_897@plt>:
    c7f0:	b00000d0 	adrp	x16, 25000 <code_1063@Base>
    c7f4:	f9457611 	ldr	x17, [x16, #2792]
    c7f8:	912ba210 	add	x16, x16, #0xae8
    c7fc:	d61f0220 	br	x17

000000000000c800 <code_368@plt>:
    c800:	b00000d0 	adrp	x16, 25000 <code_1063@Base>
    c804:	f9457a11 	ldr	x17, [x16, #2800]
    c808:	912bc210 	add	x16, x16, #0xaf0
    c80c:	d61f0220 	br	x17

000000000000c810 <code_221@plt>:
    c810:	b00000d0 	adrp	x16, 25000 <code_1063@Base>
    c814:	f9457e11 	ldr	x17, [x16, #2808]
    c818:	912be210 	add	x16, x16, #0xaf8
    c81c:	d61f0220 	br	x17

000000000000c820 <code_1115@plt>:
    c820:	b00000d0 	adrp	x16, 25000 <code_1063@Base>
    c824:	f9458211 	ldr	x17, [x16, #2816]
    c828:	912c0210 	add	x16, x16, #0xb00
    c82c:	d61f0220 	br	x17

000000000000c830 <code_828@plt>:
    c830:	b00000d0 	adrp	x16, 25000 <code_1063@Base>
    c834:	f9458611 	ldr	x17, [x16, #2824]
    c838:	912c2210 	add	x16, x16, #0xb08
    c83c:	d61f0220 	br	x17

000000000000c840 <code_366@plt>:
    c840:	b00000d0 	adrp	x16, 25000 <code_1063@Base>
    c844:	f9458a11 	ldr	x17, [x16, #2832]
    c848:	912c4210 	add	x16, x16, #0xb10
    c84c:	d61f0220 	br	x17

000000000000c850 <code_1@plt>:
    c850:	b00000d0 	adrp	x16, 25000 <code_1063@Base>
    c854:	f9458e11 	ldr	x17, [x16, #2840]
    c858:	912c6210 	add	x16, x16, #0xb18
    c85c:	d61f0220 	br	x17

000000000000c860 <code_1363@plt>:
    c860:	b00000d0 	adrp	x16, 25000 <code_1063@Base>
    c864:	f9459211 	ldr	x17, [x16, #2848]
    c868:	912c8210 	add	x16, x16, #0xb20
    c86c:	d61f0220 	br	x17

000000000000c870 <code_3@plt>:
    c870:	b00000d0 	adrp	x16, 25000 <code_1063@Base>
    c874:	f9459611 	ldr	x17, [x16, #2856]
    c878:	912ca210 	add	x16, x16, #0xb28
    c87c:	d61f0220 	br	x17

000000000000c880 <code_811@plt>:
    c880:	b00000d0 	adrp	x16, 25000 <code_1063@Base>
    c884:	f9459a11 	ldr	x17, [x16, #2864]
    c888:	912cc210 	add	x16, x16, #0xb30
    c88c:	d61f0220 	br	x17

000000000000c890 <code_1326@plt>:
    c890:	b00000d0 	adrp	x16, 25000 <code_1063@Base>
    c894:	f9459e11 	ldr	x17, [x16, #2872]
    c898:	912ce210 	add	x16, x16, #0xb38
    c89c:	d61f0220 	br	x17

000000000000c8a0 <code_850@plt>:
    c8a0:	b00000d0 	adrp	x16, 25000 <code_1063@Base>
    c8a4:	f945a211 	ldr	x17, [x16, #2880]
    c8a8:	912d0210 	add	x16, x16, #0xb40
    c8ac:	d61f0220 	br	x17

000000000000c8b0 <code_1361@plt>:
    c8b0:	b00000d0 	adrp	x16, 25000 <code_1063@Base>
    c8b4:	f945a611 	ldr	x17, [x16, #2888]
    c8b8:	912d2210 	add	x16, x16, #0xb48
    c8bc:	d61f0220 	br	x17

000000000000c8c0 <code_1324@plt>:
    c8c0:	b00000d0 	adrp	x16, 25000 <code_1063@Base>
    c8c4:	f945aa11 	ldr	x17, [x16, #2896]
    c8c8:	912d4210 	add	x16, x16, #0xb50
    c8cc:	d61f0220 	br	x17

000000000000c8d0 <code_1365@plt>:
    c8d0:	b00000d0 	adrp	x16, 25000 <code_1063@Base>
    c8d4:	f945ae11 	ldr	x17, [x16, #2904]
    c8d8:	912d6210 	add	x16, x16, #0xb58
    c8dc:	d61f0220 	br	x17

000000000000c8e0 <code_30@plt>:
    c8e0:	b00000d0 	adrp	x16, 25000 <code_1063@Base>
    c8e4:	f945b211 	ldr	x17, [x16, #2912]
    c8e8:	912d8210 	add	x16, x16, #0xb60
    c8ec:	d61f0220 	br	x17

000000000000c8f0 <code_865@plt>:
    c8f0:	b00000d0 	adrp	x16, 25000 <code_1063@Base>
    c8f4:	f945b611 	ldr	x17, [x16, #2920]
    c8f8:	912da210 	add	x16, x16, #0xb68
    c8fc:	d61f0220 	br	x17

000000000000c900 <code_497@plt>:
    c900:	b00000d0 	adrp	x16, 25000 <code_1063@Base>
    c904:	f945ba11 	ldr	x17, [x16, #2928]
    c908:	912dc210 	add	x16, x16, #0xb70
    c90c:	d61f0220 	br	x17

000000000000c910 <code_1231@plt>:
    c910:	b00000d0 	adrp	x16, 25000 <code_1063@Base>
    c914:	f945be11 	ldr	x17, [x16, #2936]
    c918:	912de210 	add	x16, x16, #0xb78
    c91c:	d61f0220 	br	x17

000000000000c920 <code_321@plt>:
    c920:	b00000d0 	adrp	x16, 25000 <code_1063@Base>
    c924:	f945c211 	ldr	x17, [x16, #2944]
    c928:	912e0210 	add	x16, x16, #0xb80
    c92c:	d61f0220 	br	x17

000000000000c930 <code_1424@plt>:
    c930:	b00000d0 	adrp	x16, 25000 <code_1063@Base>
    c934:	f945c611 	ldr	x17, [x16, #2952]
    c938:	912e2210 	add	x16, x16, #0xb88
    c93c:	d61f0220 	br	x17

000000000000c940 <code_499@plt>:
    c940:	b00000d0 	adrp	x16, 25000 <code_1063@Base>
    c944:	f945ca11 	ldr	x17, [x16, #2960]
    c948:	912e4210 	add	x16, x16, #0xb90
    c94c:	d61f0220 	br	x17

000000000000c950 <code_1055@plt>:
    c950:	b00000d0 	adrp	x16, 25000 <code_1063@Base>
    c954:	f945ce11 	ldr	x17, [x16, #2968]
    c958:	912e6210 	add	x16, x16, #0xb98
    c95c:	d61f0220 	br	x17

000000000000c960 <code_1422@plt>:
    c960:	b00000d0 	adrp	x16, 25000 <code_1063@Base>
    c964:	f945d211 	ldr	x17, [x16, #2976]
    c968:	912e8210 	add	x16, x16, #0xba0
    c96c:	d61f0220 	br	x17

000000000000c970 <code_930@plt>:
    c970:	b00000d0 	adrp	x16, 25000 <code_1063@Base>
    c974:	f945d611 	ldr	x17, [x16, #2984]
    c978:	912ea210 	add	x16, x16, #0xba8
    c97c:	d61f0220 	br	x17

000000000000c980 <code_1059@plt>:
    c980:	b00000d0 	adrp	x16, 25000 <code_1063@Base>
    c984:	f945da11 	ldr	x17, [x16, #2992]
    c988:	912ec210 	add	x16, x16, #0xbb0
    c98c:	d61f0220 	br	x17

000000000000c990 <code_1426@plt>:
    c990:	b00000d0 	adrp	x16, 25000 <code_1063@Base>
    c994:	f945de11 	ldr	x17, [x16, #3000]
    c998:	912ee210 	add	x16, x16, #0xbb8
    c99c:	d61f0220 	br	x17

000000000000c9a0 <code_924@plt>:
    c9a0:	b00000d0 	adrp	x16, 25000 <code_1063@Base>
    c9a4:	f945e211 	ldr	x17, [x16, #3008]
    c9a8:	912f0210 	add	x16, x16, #0xbc0
    c9ac:	d61f0220 	br	x17

000000000000c9b0 <code_961@plt>:
    c9b0:	b00000d0 	adrp	x16, 25000 <code_1063@Base>
    c9b4:	f945e611 	ldr	x17, [x16, #3016]
    c9b8:	912f2210 	add	x16, x16, #0xbc8
    c9bc:	d61f0220 	br	x17

000000000000c9c0 <code_963@plt>:
    c9c0:	b00000d0 	adrp	x16, 25000 <code_1063@Base>
    c9c4:	f945ea11 	ldr	x17, [x16, #3024]
    c9c8:	912f4210 	add	x16, x16, #0xbd0
    c9cc:	d61f0220 	br	x17

000000000000c9d0 <code_1469@plt>:
    c9d0:	b00000d0 	adrp	x16, 25000 <code_1063@Base>
    c9d4:	f945ee11 	ldr	x17, [x16, #3032]
    c9d8:	912f6210 	add	x16, x16, #0xbd8
    c9dc:	d61f0220 	br	x17

000000000000c9e0 <code_77@plt>:
    c9e0:	b00000d0 	adrp	x16, 25000 <code_1063@Base>
    c9e4:	f945f211 	ldr	x17, [x16, #3040]
    c9e8:	912f8210 	add	x16, x16, #0xbe0
    c9ec:	d61f0220 	br	x17

000000000000c9f0 <code_1098@plt>:
    c9f0:	b00000d0 	adrp	x16, 25000 <code_1063@Base>
    c9f4:	f945f611 	ldr	x17, [x16, #3048]
    c9f8:	912fa210 	add	x16, x16, #0xbe8
    c9fc:	d61f0220 	br	x17

000000000000ca00 <code_1461@plt>:
    ca00:	b00000d0 	adrp	x16, 25000 <code_1063@Base>
    ca04:	f945fa11 	ldr	x17, [x16, #3056]
    ca08:	912fc210 	add	x16, x16, #0xbf0
    ca0c:	d61f0220 	br	x17

000000000000ca10 <code_1111@plt>:
    ca10:	b00000d0 	adrp	x16, 25000 <code_1063@Base>
    ca14:	f945fe11 	ldr	x17, [x16, #3064]
    ca18:	912fe210 	add	x16, x16, #0xbf8
    ca1c:	d61f0220 	br	x17

000000000000ca20 <code_163@plt>:
    ca20:	b00000d0 	adrp	x16, 25000 <code_1063@Base>
    ca24:	f9460211 	ldr	x17, [x16, #3072]
    ca28:	91300210 	add	x16, x16, #0xc00
    ca2c:	d61f0220 	br	x17

000000000000ca30 <code_126@plt>:
    ca30:	b00000d0 	adrp	x16, 25000 <code_1063@Base>
    ca34:	f9460611 	ldr	x17, [x16, #3080]
    ca38:	91302210 	add	x16, x16, #0xc08
    ca3c:	d61f0220 	br	x17

000000000000ca40 <code_539@plt>:
    ca40:	b00000d0 	adrp	x16, 25000 <code_1063@Base>
    ca44:	f9460a11 	ldr	x17, [x16, #3088]
    ca48:	91304210 	add	x16, x16, #0xc10
    ca4c:	d61f0220 	br	x17

000000000000ca50 <code_576@plt>:
    ca50:	b00000d0 	adrp	x16, 25000 <code_1063@Base>
    ca54:	f9460e11 	ldr	x17, [x16, #3096]
    ca58:	91306210 	add	x16, x16, #0xc18
    ca5c:	d61f0220 	br	x17

000000000000ca60 <code_1463@plt>:
    ca60:	b00000d0 	adrp	x16, 25000 <code_1063@Base>
    ca64:	f9461211 	ldr	x17, [x16, #3104]
    ca68:	91308210 	add	x16, x16, #0xc20
    ca6c:	d61f0220 	br	x17

000000000000ca70 <code_537@plt>:
    ca70:	b00000d0 	adrp	x16, 25000 <code_1063@Base>
    ca74:	f9461611 	ldr	x17, [x16, #3112]
    ca78:	9130a210 	add	x16, x16, #0xc28
    ca7c:	d61f0220 	br	x17

000000000000ca80 <code_124@plt>:
    ca80:	b00000d0 	adrp	x16, 25000 <code_1063@Base>
    ca84:	f9461a11 	ldr	x17, [x16, #3120]
    ca88:	9130c210 	add	x16, x16, #0xc30
    ca8c:	d61f0220 	br	x17

000000000000ca90 <code_574@plt>:
    ca90:	b00000d0 	adrp	x16, 25000 <code_1063@Base>
    ca94:	f9461e11 	ldr	x17, [x16, #3128]
    ca98:	9130e210 	add	x16, x16, #0xc38
    ca9c:	d61f0220 	br	x17

000000000000caa0 <code_411@plt>:
    caa0:	b00000d0 	adrp	x16, 25000 <code_1063@Base>
    caa4:	f9462211 	ldr	x17, [x16, #3136]
    caa8:	91310210 	add	x16, x16, #0xc40
    caac:	d61f0220 	br	x17

000000000000cab0 <code_73@plt>:
    cab0:	b00000d0 	adrp	x16, 25000 <code_1063@Base>
    cab4:	f9462611 	ldr	x17, [x16, #3144]
    cab8:	91312210 	add	x16, x16, #0xc48
    cabc:	d61f0220 	br	x17

000000000000cac0 <code_572@plt>:
    cac0:	b00000d0 	adrp	x16, 25000 <code_1063@Base>
    cac4:	f9462a11 	ldr	x17, [x16, #3152]
    cac8:	91314210 	add	x16, x16, #0xc50
    cacc:	d61f0220 	br	x17

000000000000cad0 <code_75@plt>:
    cad0:	b00000d0 	adrp	x16, 25000 <code_1063@Base>
    cad4:	f9462e11 	ldr	x17, [x16, #3160]
    cad8:	91316210 	add	x16, x16, #0xc58
    cadc:	d61f0220 	br	x17

000000000000cae0 <code_450@plt>:
    cae0:	b00000d0 	adrp	x16, 25000 <code_1063@Base>
    cae4:	f9463211 	ldr	x17, [x16, #3168]
    cae8:	91318210 	add	x16, x16, #0xc60
    caec:	d61f0220 	br	x17

000000000000caf0 <code_415@plt>:
    caf0:	b00000d0 	adrp	x16, 25000 <code_1063@Base>
    caf4:	f9463611 	ldr	x17, [x16, #3176]
    caf8:	9131a210 	add	x16, x16, #0xc68
    cafc:	d61f0220 	br	x17

000000000000cb00 <code_1126@plt>:
    cb00:	b00000d0 	adrp	x16, 25000 <code_1063@Base>
    cb04:	f9463a11 	ldr	x17, [x16, #3184]
    cb08:	9131c210 	add	x16, x16, #0xc70
    cb0c:	d61f0220 	br	x17

000000000000cb10 <code_71@plt>:
    cb10:	b00000d0 	adrp	x16, 25000 <code_1063@Base>
    cb14:	f9463e11 	ldr	x17, [x16, #3192]
    cb18:	9131e210 	add	x16, x16, #0xc78
    cb1c:	d61f0220 	br	x17

000000000000cb20 <code_1467@plt>:
    cb20:	b00000d0 	adrp	x16, 25000 <code_1063@Base>
    cb24:	f9464211 	ldr	x17, [x16, #3200]
    cb28:	91320210 	add	x16, x16, #0xc80
    cb2c:	d61f0220 	br	x17

000000000000cb30 <code_169@plt>:
    cb30:	b00000d0 	adrp	x16, 25000 <code_1063@Base>
    cb34:	f9464611 	ldr	x17, [x16, #3208]
    cb38:	91322210 	add	x16, x16, #0xc88
    cb3c:	d61f0220 	br	x17

000000000000cb40 <code_413@plt>:
    cb40:	b00000d0 	adrp	x16, 25000 <code_1063@Base>
    cb44:	f9464a11 	ldr	x17, [x16, #3216]
    cb48:	91324210 	add	x16, x16, #0xc90
    cb4c:	d61f0220 	br	x17

000000000000cb50 <code_697@plt>:
    cb50:	b00000d0 	adrp	x16, 25000 <code_1063@Base>
    cb54:	f9464e11 	ldr	x17, [x16, #3224]
    cb58:	91326210 	add	x16, x16, #0xc98
    cb5c:	d61f0220 	br	x17

000000000000cb60 <code_1342@plt>:
    cb60:	b00000d0 	adrp	x16, 25000 <code_1063@Base>
    cb64:	f9465211 	ldr	x17, [x16, #3232]
    cb68:	91328210 	add	x16, x16, #0xca0
    cb6c:	d61f0220 	br	x17

000000000000cb70 <code_167@plt>:
    cb70:	b00000d0 	adrp	x16, 25000 <code_1063@Base>
    cb74:	f9465611 	ldr	x17, [x16, #3240]
    cb78:	9132a210 	add	x16, x16, #0xca8
    cb7c:	d61f0220 	br	x17

000000000000cb80 <code_650@plt>:
    cb80:	b00000d0 	adrp	x16, 25000 <code_1063@Base>
    cb84:	f9465a11 	ldr	x17, [x16, #3248]
    cb88:	9132c210 	add	x16, x16, #0xcb0
    cb8c:	d61f0220 	br	x17

000000000000cb90 <code_613@plt>:
    cb90:	b00000d0 	adrp	x16, 25000 <code_1063@Base>
    cb94:	f9465e11 	ldr	x17, [x16, #3256]
    cb98:	9132e210 	add	x16, x16, #0xcb8
    cb9c:	d61f0220 	br	x17

000000000000cba0 <code_1169@plt>:
    cba0:	b00000d0 	adrp	x16, 25000 <code_1063@Base>
    cba4:	f9466211 	ldr	x17, [x16, #3264]
    cba8:	91330210 	add	x16, x16, #0xcc0
    cbac:	d61f0220 	br	x17

000000000000cbb0 <code_699@plt>:
    cbb0:	b00000d0 	adrp	x16, 25000 <code_1063@Base>
    cbb4:	f9466611 	ldr	x17, [x16, #3272]
    cbb8:	91332210 	add	x16, x16, #0xcc8
    cbbc:	d61f0220 	br	x17

000000000000cbc0 <code_629@plt>:
    cbc0:	b00000d0 	adrp	x16, 25000 <code_1063@Base>
    cbc4:	f9466a11 	ldr	x17, [x16, #3280]
    cbc8:	91334210 	add	x16, x16, #0xcd0
    cbcc:	d61f0220 	br	x17

000000000000cbd0 <code_1128@plt>:
    cbd0:	b00000d0 	adrp	x16, 25000 <code_1063@Base>
    cbd4:	f9466e11 	ldr	x17, [x16, #3288]
    cbd8:	91336210 	add	x16, x16, #0xcd8
    cbdc:	d61f0220 	br	x17

000000000000cbe0 <code_662@plt>:
    cbe0:	b00000d0 	adrp	x16, 25000 <code_1063@Base>
    cbe4:	f9467211 	ldr	x17, [x16, #3296]
    cbe8:	91338210 	add	x16, x16, #0xce0
    cbec:	d61f0220 	br	x17

000000000000cbf0 <code_1263@plt>:
    cbf0:	b00000d0 	adrp	x16, 25000 <code_1063@Base>
    cbf4:	f9467611 	ldr	x17, [x16, #3304]
    cbf8:	9133a210 	add	x16, x16, #0xce8
    cbfc:	d61f0220 	br	x17

000000000000cc00 <code_290@plt>:
    cc00:	b00000d0 	adrp	x16, 25000 <code_1063@Base>
    cc04:	f9467a11 	ldr	x17, [x16, #3312]
    cc08:	9133c210 	add	x16, x16, #0xcf0
    cc0c:	d61f0220 	br	x17

000000000000cc10 <code_218@plt>:
    cc10:	b00000d0 	adrp	x16, 25000 <code_1063@Base>
    cc14:	f9467e11 	ldr	x17, [x16, #3320]
    cc18:	9133e210 	add	x16, x16, #0xcf8
    cc1c:	d61f0220 	br	x17

000000000000cc20 <code_533@plt>:
    cc20:	b00000d0 	adrp	x16, 25000 <code_1063@Base>
    cc24:	f9468211 	ldr	x17, [x16, #3328]
    cc28:	91340210 	add	x16, x16, #0xd00
    cc2c:	d61f0220 	br	x17

000000000000cc30 <code_120@plt>:
    cc30:	b00000d0 	adrp	x16, 25000 <code_1063@Base>
    cc34:	f9468611 	ldr	x17, [x16, #3336]
    cc38:	91342210 	add	x16, x16, #0xd08
    cc3c:	d61f0220 	br	x17

000000000000cc40 <code_777@plt>:
    cc40:	b00000d0 	adrp	x16, 25000 <code_1063@Base>
    cc44:	f9468a11 	ldr	x17, [x16, #3344]
    cc48:	91344210 	add	x16, x16, #0xd10
    cc4c:	d61f0220 	br	x17

000000000000cc50 <code_259@plt>:
    cc50:	b00000d0 	adrp	x16, 25000 <code_1063@Base>
    cc54:	f9468e11 	ldr	x17, [x16, #3352]
    cc58:	91346210 	add	x16, x16, #0xd18
    cc5c:	d61f0220 	br	x17

000000000000cc60 <code_531@plt>:
    cc60:	b00000d0 	adrp	x16, 25000 <code_1063@Base>
    cc64:	f9469211 	ldr	x17, [x16, #3360]
    cc68:	91348210 	add	x16, x16, #0xd20
    cc6c:	d61f0220 	br	x17

000000000000cc70 <code_766@plt>:
    cc70:	b00000d0 	adrp	x16, 25000 <code_1063@Base>
    cc74:	f9469611 	ldr	x17, [x16, #3368]
    cc78:	9134a210 	add	x16, x16, #0xd28
    cc7c:	d61f0220 	br	x17

000000000000cc80 <code_729@plt>:
    cc80:	b00000d0 	adrp	x16, 25000 <code_1063@Base>
    cc84:	f9469a11 	ldr	x17, [x16, #3376]
    cc88:	9134c210 	add	x16, x16, #0xd30
    cc8c:	d61f0220 	br	x17

000000000000cc90 <code_779@plt>:
    cc90:	b00000d0 	adrp	x16, 25000 <code_1063@Base>
    cc94:	f9469e11 	ldr	x17, [x16, #3384]
    cc98:	9134e210 	add	x16, x16, #0xd38
    cc9c:	d61f0220 	br	x17

000000000000cca0 <code_257@plt>:
    cca0:	b00000d0 	adrp	x16, 25000 <code_1063@Base>
    cca4:	f946a211 	ldr	x17, [x16, #3392]
    cca8:	91350210 	add	x16, x16, #0xd40
    ccac:	d61f0220 	br	x17

000000000000ccb0 <code_1226@plt>:
    ccb0:	b00000d0 	adrp	x16, 25000 <code_1063@Base>
    ccb4:	f946a611 	ldr	x17, [x16, #3400]
    ccb8:	91352210 	add	x16, x16, #0xd48
    ccbc:	d61f0220 	br	x17

000000000000ccc0 <code_1032@plt>:
    ccc0:	b00000d0 	adrp	x16, 25000 <code_1063@Base>
    ccc4:	f946aa11 	ldr	x17, [x16, #3408]
    ccc8:	91354210 	add	x16, x16, #0xd50
    cccc:	d61f0220 	br	x17

000000000000ccd0 <code_764@plt>:
    ccd0:	b00000d0 	adrp	x16, 25000 <code_1063@Base>
    ccd4:	f946ae11 	ldr	x17, [x16, #3416]
    ccd8:	91356210 	add	x16, x16, #0xd58
    ccdc:	d61f0220 	br	x17

000000000000cce0 <code_1071@plt>:
    cce0:	b00000d0 	adrp	x16, 25000 <code_1063@Base>
    cce4:	f946b211 	ldr	x17, [x16, #3424]
    cce8:	91358210 	add	x16, x16, #0xd60
    ccec:	d61f0220 	br	x17

000000000000ccf0 <code_1034@plt>:
    ccf0:	b00000d0 	adrp	x16, 25000 <code_1063@Base>
    ccf4:	f946b611 	ldr	x17, [x16, #3432]
    ccf8:	9135a210 	add	x16, x16, #0xd68
    ccfc:	d61f0220 	br	x17

000000000000cd00 <code_762@plt>:
    cd00:	b00000d0 	adrp	x16, 25000 <code_1063@Base>
    cd04:	f946ba11 	ldr	x17, [x16, #3440]
    cd08:	9135c210 	add	x16, x16, #0xd70
    cd0c:	d61f0220 	br	x17

000000000000cd10 <code_48@plt>:
    cd10:	b00000d0 	adrp	x16, 25000 <code_1063@Base>
    cd14:	f946be11 	ldr	x17, [x16, #3448]
    cd18:	9135e210 	add	x16, x16, #0xd78
    cd1c:	d61f0220 	br	x17

000000000000cd20 <code_1401@plt>:
    cd20:	b00000d0 	adrp	x16, 25000 <code_1063@Base>
    cd24:	f946c211 	ldr	x17, [x16, #3456]
    cd28:	91360210 	add	x16, x16, #0xd80
    cd2c:	d61f0220 	br	x17

000000000000cd30 <code_1073@plt>:
    cd30:	b00000d0 	adrp	x16, 25000 <code_1063@Base>
    cd34:	f946c611 	ldr	x17, [x16, #3464]
    cd38:	91362210 	add	x16, x16, #0xd88
    cd3c:	d61f0220 	br	x17

000000000000cd40 <code_1163@plt>:
    cd40:	b00000d0 	adrp	x16, 25000 <code_1063@Base>
    cd44:	f946ca11 	ldr	x17, [x16, #3472]
    cd48:	91364210 	add	x16, x16, #0xd90
    cd4c:	d61f0220 	br	x17

000000000000cd50 <printf@plt>:
    cd50:	b00000d0 	adrp	x16, 25000 <code_1063@Base>
    cd54:	f946ce11 	ldr	x17, [x16, #3480]
    cd58:	91366210 	add	x16, x16, #0xd98
    cd5c:	d61f0220 	br	x17

000000000000cd60 <code_7@plt>:
    cd60:	b00000d0 	adrp	x16, 25000 <code_1063@Base>
    cd64:	f946d211 	ldr	x17, [x16, #3488]
    cd68:	91368210 	add	x16, x16, #0xda0
    cd6c:	d61f0220 	br	x17

000000000000cd70 <code_1167@plt>:
    cd70:	b00000d0 	adrp	x16, 25000 <code_1063@Base>
    cd74:	f946d611 	ldr	x17, [x16, #3496]
    cd78:	9136a210 	add	x16, x16, #0xda8
    cd7c:	d61f0220 	br	x17

000000000000cd80 <code_1269@plt>:
    cd80:	b00000d0 	adrp	x16, 25000 <code_1063@Base>
    cd84:	f946da11 	ldr	x17, [x16, #3504]
    cd88:	9136c210 	add	x16, x16, #0xdb0
    cd8c:	d61f0220 	br	x17

000000000000cd90 <code_1165@plt>:
    cd90:	b00000d0 	adrp	x16, 25000 <code_1063@Base>
    cd94:	f946de11 	ldr	x17, [x16, #3512]
    cd98:	9136e210 	add	x16, x16, #0xdb8
    cd9c:	d61f0220 	br	x17

000000000000cda0 <code_338@plt>:
    cda0:	b00000d0 	adrp	x16, 25000 <code_1063@Base>
    cda4:	f946e211 	ldr	x17, [x16, #3520]
    cda8:	91370210 	add	x16, x16, #0xdc0
    cdac:	d61f0220 	br	x17

000000000000cdb0 <code_334@plt>:
    cdb0:	b00000d0 	adrp	x16, 25000 <code_1063@Base>
    cdb4:	f946e611 	ldr	x17, [x16, #3528]
    cdb8:	91372210 	add	x16, x16, #0xdc8
    cdbc:	d61f0220 	br	x17

000000000000cdc0 <code_1318@plt>:
    cdc0:	b00000d0 	adrp	x16, 25000 <code_1063@Base>
    cdc4:	f946ea11 	ldr	x17, [x16, #3536]
    cdc8:	91374210 	add	x16, x16, #0xdd0
    cdcc:	d61f0220 	br	x17

000000000000cdd0 <code_1355@plt>:
    cdd0:	b00000d0 	adrp	x16, 25000 <code_1063@Base>
    cdd4:	f946ee11 	ldr	x17, [x16, #3544]
    cdd8:	91376210 	add	x16, x16, #0xdd8
    cddc:	d61f0220 	br	x17

000000000000cde0 <code_212@plt>:
    cde0:	b00000d0 	adrp	x16, 25000 <code_1063@Base>
    cde4:	f946f211 	ldr	x17, [x16, #3552]
    cde8:	91378210 	add	x16, x16, #0xde0
    cdec:	d61f0220 	br	x17

000000000000cdf0 <code_377@plt>:
    cdf0:	b00000d0 	adrp	x16, 25000 <code_1063@Base>
    cdf4:	f946f611 	ldr	x17, [x16, #3560]
    cdf8:	9137a210 	add	x16, x16, #0xde8
    cdfc:	d61f0220 	br	x17

000000000000ce00 <code_800@plt>:
    ce00:	b00000d0 	adrp	x16, 25000 <code_1063@Base>
    ce04:	f946fa11 	ldr	x17, [x16, #3568]
    ce08:	9137c210 	add	x16, x16, #0xdf0
    ce0c:	d61f0220 	br	x17

000000000000ce10 <code_856@plt>:
    ce10:	b00000d0 	adrp	x16, 25000 <code_1063@Base>
    ce14:	f946fe11 	ldr	x17, [x16, #3576]
    ce18:	9137e210 	add	x16, x16, #0xdf8
    ce1c:	d61f0220 	br	x17

000000000000ce20 <code_375@plt>:
    ce20:	b00000d0 	adrp	x16, 25000 <code_1063@Base>
    ce24:	f9470211 	ldr	x17, [x16, #3584]
    ce28:	91380210 	add	x16, x16, #0xe00
    ce2c:	d61f0220 	br	x17

000000000000ce30 <code_1390@plt>:
    ce30:	b00000d0 	adrp	x16, 25000 <code_1063@Base>
    ce34:	f9470611 	ldr	x17, [x16, #3592]
    ce38:	91382210 	add	x16, x16, #0xe08
    ce3c:	d61f0220 	br	x17

000000000000ce40 <code_817@plt>:
    ce40:	b00000d0 	adrp	x16, 25000 <code_1063@Base>
    ce44:	f9470a11 	ldr	x17, [x16, #3600]
    ce48:	91384210 	add	x16, x16, #0xe10
    ce4c:	d61f0220 	br	x17

000000000000ce50 <code_854@plt>:
    ce50:	b00000d0 	adrp	x16, 25000 <code_1063@Base>
    ce54:	f9470e11 	ldr	x17, [x16, #3608]
    ce58:	91386210 	add	x16, x16, #0xe18
    ce5c:	d61f0220 	br	x17

000000000000ce60 <code_852@plt>:
    ce60:	b00000d0 	adrp	x16, 25000 <code_1063@Base>
    ce64:	f9471211 	ldr	x17, [x16, #3616]
    ce68:	91388210 	add	x16, x16, #0xe20
    ce6c:	d61f0220 	br	x17

000000000000ce70 <code_1143@plt>:
    ce70:	b00000d0 	adrp	x16, 25000 <code_1063@Base>
    ce74:	f9471611 	ldr	x17, [x16, #3624]
    ce78:	9138a210 	add	x16, x16, #0xe28
    ce7c:	d61f0220 	br	x17

000000000000ce80 <code_1359@plt>:
    ce80:	b00000d0 	adrp	x16, 25000 <code_1063@Base>
    ce84:	f9471a11 	ldr	x17, [x16, #3632]
    ce88:	9138c210 	add	x16, x16, #0xe30
    ce8c:	d61f0220 	br	x17

000000000000ce90 <code_1106@plt>:
    ce90:	b00000d0 	adrp	x16, 25000 <code_1063@Base>
    ce94:	f9471e11 	ldr	x17, [x16, #3640]
    ce98:	9138e210 	add	x16, x16, #0xe38
    ce9c:	d61f0220 	br	x17

000000000000cea0 <code_1398@plt>:
    cea0:	b00000d0 	adrp	x16, 25000 <code_1063@Base>
    cea4:	f9472211 	ldr	x17, [x16, #3648]
    cea8:	91390210 	add	x16, x16, #0xe40
    ceac:	d61f0220 	br	x17

000000000000ceb0 <code_44@plt>:
    ceb0:	b00000d0 	adrp	x16, 25000 <code_1063@Base>
    ceb4:	f9472611 	ldr	x17, [x16, #3656]
    ceb8:	91392210 	add	x16, x16, #0xe48
    cebc:	d61f0220 	br	x17

000000000000cec0 <code_1280@plt>:
    cec0:	b00000d0 	adrp	x16, 25000 <code_1063@Base>
    cec4:	f9472a11 	ldr	x17, [x16, #3664]
    cec8:	91394210 	add	x16, x16, #0xe50
    cecc:	d61f0220 	br	x17

000000000000ced0 <code_893@plt>:
    ced0:	b00000d0 	adrp	x16, 25000 <code_1063@Base>
    ced4:	f9472e11 	ldr	x17, [x16, #3672]
    ced8:	91396210 	add	x16, x16, #0xe58
    cedc:	d61f0220 	br	x17

000000000000cee0 <code_1396@plt>:
    cee0:	b00000d0 	adrp	x16, 25000 <code_1063@Base>
    cee4:	f9473211 	ldr	x17, [x16, #3680]
    cee8:	91398210 	add	x16, x16, #0xe60
    ceec:	d61f0220 	br	x17

000000000000cef0 <code_1282@plt>:
    cef0:	b00000d0 	adrp	x16, 25000 <code_1063@Base>
    cef4:	f9473611 	ldr	x17, [x16, #3688]
    cef8:	9139a210 	add	x16, x16, #0xe68
    cefc:	d61f0220 	br	x17

000000000000cf00 <code_1394@plt>:
    cf00:	b00000d0 	adrp	x16, 25000 <code_1063@Base>
    cf04:	f9473a11 	ldr	x17, [x16, #3696]
    cf08:	9139c210 	add	x16, x16, #0xe70
    cf0c:	d61f0220 	br	x17

000000000000cf10 <code_891@plt>:
    cf10:	b00000d0 	adrp	x16, 25000 <code_1063@Base>
    cf14:	f9473e11 	ldr	x17, [x16, #3704]
    cf18:	9139e210 	add	x16, x16, #0xe78
    cf1c:	d61f0220 	br	x17

000000000000cf20 <code_482@plt>:
    cf20:	b00000d0 	adrp	x16, 25000 <code_1063@Base>
    cf24:	f9474211 	ldr	x17, [x16, #3712]
    cf28:	913a0210 	add	x16, x16, #0xe80
    cf2c:	d61f0220 	br	x17

000000000000cf30 <code_480@plt>:
    cf30:	b00000d0 	adrp	x16, 25000 <code_1063@Base>
    cf34:	f9474611 	ldr	x17, [x16, #3720]
    cf38:	913a2210 	add	x16, x16, #0xe88
    cf3c:	d61f0220 	br	x17

000000000000cf40 <code_408@plt>:
    cf40:	b00000d0 	adrp	x16, 25000 <code_1063@Base>
    cf44:	f9474a11 	ldr	x17, [x16, #3728]
    cf48:	913a4210 	add	x16, x16, #0xe90
    cf4c:	d61f0220 	br	x17

000000000000cf50 <code_332@plt>:
    cf50:	b00000d0 	adrp	x16, 25000 <code_1063@Base>
    cf54:	f9474e11 	ldr	x17, [x16, #3736]
    cf58:	913a6210 	add	x16, x16, #0xe98
    cf5c:	d61f0220 	br	x17

000000000000cf60 <code_988@plt>:
    cf60:	b00000d0 	adrp	x16, 25000 <code_1063@Base>
    cf64:	f9475211 	ldr	x17, [x16, #3744]
    cf68:	913a8210 	add	x16, x16, #0xea0
    cf6c:	d61f0220 	br	x17

000000000000cf70 <code_900@plt>:
    cf70:	b00000d0 	adrp	x16, 25000 <code_1063@Base>
    cf74:	f9475611 	ldr	x17, [x16, #3752]
    cf78:	913aa210 	add	x16, x16, #0xea8
    cf7c:	d61f0220 	br	x17

000000000000cf80 <code_330@plt>:
    cf80:	b00000d0 	adrp	x16, 25000 <code_1063@Base>
    cf84:	f9475a11 	ldr	x17, [x16, #3760]
    cf88:	913ac210 	add	x16, x16, #0xeb0
    cf8c:	d61f0220 	br	x17

000000000000cf90 <code_1206@plt>:
    cf90:	b00000d0 	adrp	x16, 25000 <code_1063@Base>
    cf94:	f9475e11 	ldr	x17, [x16, #3768]
    cf98:	913ae210 	add	x16, x16, #0xeb8
    cf9c:	d61f0220 	br	x17

000000000000cfa0 <code_902@plt>:
    cfa0:	b00000d0 	adrp	x16, 25000 <code_1063@Base>
    cfa4:	f9476211 	ldr	x17, [x16, #3776]
    cfa8:	913b0210 	add	x16, x16, #0xec0
    cfac:	d61f0220 	br	x17

000000000000cfb0 <code_1247@plt>:
    cfb0:	b00000d0 	adrp	x16, 25000 <code_1063@Base>
    cfb4:	f9476611 	ldr	x17, [x16, #3784]
    cfb8:	913b2210 	add	x16, x16, #0xec8
    cfbc:	d61f0220 	br	x17

000000000000cfc0 <code_1068@plt>:
    cfc0:	b00000d0 	adrp	x16, 25000 <code_1063@Base>
    cfc4:	f9476a11 	ldr	x17, [x16, #3792]
    cfc8:	913b4210 	add	x16, x16, #0xed0
    cfcc:	d61f0220 	br	x17

000000000000cfd0 <code_936@plt>:
    cfd0:	b00000d0 	adrp	x16, 25000 <code_1063@Base>
    cfd4:	f9476e11 	ldr	x17, [x16, #3800]
    cfd8:	913b6210 	add	x16, x16, #0xed8
    cfdc:	d61f0220 	br	x17

000000000000cfe0 <code_1208@plt>:
    cfe0:	b00000d0 	adrp	x16, 25000 <code_1063@Base>
    cfe4:	f9477211 	ldr	x17, [x16, #3808]
    cfe8:	913b8210 	add	x16, x16, #0xee0
    cfec:	d61f0220 	br	x17

000000000000cff0 <code_1433@plt>:
    cff0:	b00000d0 	adrp	x16, 25000 <code_1063@Base>
    cff4:	f9477611 	ldr	x17, [x16, #3816]
    cff8:	913ba210 	add	x16, x16, #0xee8
    cffc:	d61f0220 	br	x17

000000000000d000 <code_1243@plt>:
    d000:	900000d0 	adrp	x16, 25000 <code_1063@Base>
    d004:	f9477a11 	ldr	x17, [x16, #3824]
    d008:	913bc210 	add	x16, x16, #0xef0
    d00c:	d61f0220 	br	x17

000000000000d010 <code_1204@plt>:
    d010:	900000d0 	adrp	x16, 25000 <code_1063@Base>
    d014:	f9477e11 	ldr	x17, [x16, #3832]
    d018:	913be210 	add	x16, x16, #0xef8
    d01c:	d61f0220 	br	x17

000000000000d020 <code_1437@plt>:
    d020:	900000d0 	adrp	x16, 25000 <code_1063@Base>
    d024:	f9478211 	ldr	x17, [x16, #3840]
    d028:	913c0210 	add	x16, x16, #0xf00
    d02c:	d61f0220 	br	x17

000000000000d030 <code_932@plt>:
    d030:	900000d0 	adrp	x16, 25000 <code_1063@Base>
    d034:	f9478611 	ldr	x17, [x16, #3848]
    d038:	913c2210 	add	x16, x16, #0xf08
    d03c:	d61f0220 	br	x17

000000000000d040 <code_1182@plt>:
    d040:	900000d0 	adrp	x16, 25000 <code_1063@Base>
    d044:	f9478a11 	ldr	x17, [x16, #3856]
    d048:	913c4210 	add	x16, x16, #0xf10
    d04c:	d61f0220 	br	x17

000000000000d050 <code_87@plt>:
    d050:	900000d0 	adrp	x16, 25000 <code_1063@Base>
    d054:	f9478e11 	ldr	x17, [x16, #3864]
    d058:	913c6210 	add	x16, x16, #0xf18
    d05c:	d61f0220 	br	x17

000000000000d060 <fprintf@plt>:
    d060:	900000d0 	adrp	x16, 25000 <code_1063@Base>
    d064:	f9479211 	ldr	x17, [x16, #3872]
    d068:	913c8210 	add	x16, x16, #0xf20
    d06c:	d61f0220 	br	x17

000000000000d070 <code_977@plt>:
    d070:	900000d0 	adrp	x16, 25000 <code_1063@Base>
    d074:	f9479611 	ldr	x17, [x16, #3880]
    d078:	913ca210 	add	x16, x16, #0xf28
    d07c:	d61f0220 	br	x17

000000000000d080 <code_1202@plt>:
    d080:	900000d0 	adrp	x16, 25000 <code_1063@Base>
    d084:	f9479a11 	ldr	x17, [x16, #3888]
    d088:	913cc210 	add	x16, x16, #0xf30
    d08c:	d61f0220 	br	x17

000000000000d090 <code_179@plt>:
    d090:	900000d0 	adrp	x16, 25000 <code_1063@Base>
    d094:	f9479e11 	ldr	x17, [x16, #3896]
    d098:	913ce210 	add	x16, x16, #0xf38
    d09c:	d61f0220 	br	x17

000000000000d0a0 <code_971@plt>:
    d0a0:	900000d0 	adrp	x16, 25000 <code_1063@Base>
    d0a4:	f947a211 	ldr	x17, [x16, #3904]
    d0a8:	913d0210 	add	x16, x16, #0xf40
    d0ac:	d61f0220 	br	x17

000000000000d0b0 <code_134@plt>:
    d0b0:	900000d0 	adrp	x16, 25000 <code_1063@Base>
    d0b4:	f947a611 	ldr	x17, [x16, #3912]
    d0b8:	913d2210 	add	x16, x16, #0xf48
    d0bc:	d61f0220 	br	x17

000000000000d0c0 <code_584@plt>:
    d0c0:	900000d0 	adrp	x16, 25000 <code_1063@Base>
    d0c4:	f947aa11 	ldr	x17, [x16, #3920]
    d0c8:	913d4210 	add	x16, x16, #0xf50
    d0cc:	d61f0220 	br	x17

000000000000d0d0 <code_1180@plt>:
    d0d0:	900000d0 	adrp	x16, 25000 <code_1063@Base>
    d0d4:	f947ae11 	ldr	x17, [x16, #3928]
    d0d8:	913d6210 	add	x16, x16, #0xf58
    d0dc:	d61f0220 	br	x17

000000000000d0e0 <code_1200@plt>:
    d0e0:	900000d0 	adrp	x16, 25000 <code_1063@Base>
    d0e4:	f947b211 	ldr	x17, [x16, #3936]
    d0e8:	913d8210 	add	x16, x16, #0xf60
    d0ec:	d61f0220 	br	x17

000000000000d0f0 <code_132@plt>:
    d0f0:	900000d0 	adrp	x16, 25000 <code_1063@Base>
    d0f4:	f947b611 	ldr	x17, [x16, #3944]
    d0f8:	913da210 	add	x16, x16, #0xf68
    d0fc:	d61f0220 	br	x17

000000000000d100 <code_545@plt>:
    d100:	900000d0 	adrp	x16, 25000 <code_1063@Base>
    d104:	f947ba11 	ldr	x17, [x16, #3952]
    d108:	913dc210 	add	x16, x16, #0xf70
    d10c:	d61f0220 	br	x17

000000000000d110 <code_508@plt>:
    d110:	900000d0 	adrp	x16, 25000 <code_1063@Base>
    d114:	f947be11 	ldr	x17, [x16, #3960]
    d118:	913de210 	add	x16, x16, #0xf78
    d11c:	d61f0220 	br	x17

000000000000d120 <code_543@plt>:
    d120:	900000d0 	adrp	x16, 25000 <code_1063@Base>
    d124:	f947c211 	ldr	x17, [x16, #3968]
    d128:	913e0210 	add	x16, x16, #0xf80
    d12c:	d61f0220 	br	x17

000000000000d130 <code_443@plt>:
    d130:	900000d0 	adrp	x16, 25000 <code_1063@Base>
    d134:	f947c611 	ldr	x17, [x16, #3976]
    d138:	913e2210 	add	x16, x16, #0xf88
    d13c:	d61f0220 	br	x17

000000000000d140 <code_406@plt>:
    d140:	900000d0 	adrp	x16, 25000 <code_1063@Base>
    d144:	f947ca11 	ldr	x17, [x16, #3984]
    d148:	913e4210 	add	x16, x16, #0xf90
    d14c:	d61f0220 	br	x17

000000000000d150 <code_1117@plt>:
    d150:	900000d0 	adrp	x16, 25000 <code_1063@Base>
    d154:	f947ce11 	ldr	x17, [x16, #3992]
    d158:	913e6210 	add	x16, x16, #0xf98
    d15c:	d61f0220 	br	x17

000000000000d160 <code_81@plt>:
    d160:	900000d0 	adrp	x16, 25000 <code_1063@Base>
    d164:	f947d211 	ldr	x17, [x16, #4000]
    d168:	913e8210 	add	x16, x16, #0xfa0
    d16c:	d61f0220 	br	x17

000000000000d170 <code_173@plt>:
    d170:	900000d0 	adrp	x16, 25000 <code_1063@Base>
    d174:	f947d611 	ldr	x17, [x16, #4008]
    d178:	913ea210 	add	x16, x16, #0xfa8
    d17c:	d61f0220 	br	x17

000000000000d180 <code_1476@plt>:
    d180:	900000d0 	adrp	x16, 25000 <code_1063@Base>
    d184:	f947da11 	ldr	x17, [x16, #4016]
    d188:	913ec210 	add	x16, x16, #0xfb0
    d18c:	d61f0220 	br	x17

000000000000d190 <code_171@plt>:
    d190:	900000d0 	adrp	x16, 25000 <code_1063@Base>
    d194:	f947de11 	ldr	x17, [x16, #4024]
    d198:	913ee210 	add	x16, x16, #0xfb8
    d19c:	d61f0220 	br	x17

000000000000d1a0 <code_688@plt>:
    d1a0:	900000d0 	adrp	x16, 25000 <code_1063@Base>
    d1a4:	f947e211 	ldr	x17, [x16, #4032]
    d1a8:	913f0210 	add	x16, x16, #0xfc0
    d1ac:	d61f0220 	br	x17

Disassembly of section .text:

000000000000d1c0 <_start>:
    d1c0:	d503201f 	nop
    d1c4:	d280001d 	mov	x29, #0x0                   	// #0
    d1c8:	d280001e 	mov	x30, #0x0                   	// #0
    d1cc:	aa0003e5 	mov	x5, x0
    d1d0:	f94003e1 	ldr	x1, [sp]
    d1d4:	910023e2 	add	x2, sp, #0x8
    d1d8:	910003e6 	mov	x6, sp
    d1dc:	900000c0 	adrp	x0, 25000 <code_1063@Base>
    d1e0:	f947f800 	ldr	x0, [x0, #4080]
    d1e4:	d2800003 	mov	x3, #0x0                   	// #0
    d1e8:	d2800004 	mov	x4, #0x0                   	// #0
    d1ec:	97fff5a5 	bl	a880 <__libc_start_main@plt>
    d1f0:	97fffa70 	bl	bbb0 <abort@plt>

000000000000d1f4 <call_weak_fn>:
    d1f4:	900000c0 	adrp	x0, 25000 <code_1063@Base>
    d1f8:	f947f400 	ldr	x0, [x0, #4072]
    d1fc:	b4000040 	cbz	x0, d204 <call_weak_fn+0x10>
    d200:	17fffa34 	b	bad0 <__gmon_start__@plt>
    d204:	d65f03c0 	ret
    d208:	d503201f 	nop
    d20c:	d503201f 	nop

000000000000d210 <deregister_tm_clones>:
    d210:	b00000c0 	adrp	x0, 26000 <__data_start>
    d214:	91004000 	add	x0, x0, #0x10
    d218:	b00000c1 	adrp	x1, 26000 <__data_start>
    d21c:	91004021 	add	x1, x1, #0x10
    d220:	eb00003f 	cmp	x1, x0
    d224:	540000c0 	b.eq	d23c <deregister_tm_clones+0x2c>  // b.none
    d228:	900000c1 	adrp	x1, 25000 <code_1063@Base>
    d22c:	f947e821 	ldr	x1, [x1, #4048]
    d230:	b4000061 	cbz	x1, d23c <deregister_tm_clones+0x2c>
    d234:	aa0103f0 	mov	x16, x1
    d238:	d61f0200 	br	x16
    d23c:	d65f03c0 	ret

000000000000d240 <register_tm_clones>:
    d240:	b00000c0 	adrp	x0, 26000 <__data_start>
    d244:	91004000 	add	x0, x0, #0x10
    d248:	b00000c1 	adrp	x1, 26000 <__data_start>
    d24c:	91004021 	add	x1, x1, #0x10
    d250:	cb000021 	sub	x1, x1, x0
    d254:	d37ffc22 	lsr	x2, x1, #63
    d258:	8b810c41 	add	x1, x2, x1, asr #3
    d25c:	9341fc21 	asr	x1, x1, #1
    d260:	b40000c1 	cbz	x1, d278 <register_tm_clones+0x38>
    d264:	900000c2 	adrp	x2, 25000 <code_1063@Base>
    d268:	f947fc42 	ldr	x2, [x2, #4088]
    d26c:	b4000062 	cbz	x2, d278 <register_tm_clones+0x38>
    d270:	aa0203f0 	mov	x16, x2
    d274:	d61f0200 	br	x16
    d278:	d65f03c0 	ret
    d27c:	d503201f 	nop

000000000000d280 <__do_global_dtors_aux>:
    d280:	a9be7bfd 	stp	x29, x30, [sp, #-32]!
    d284:	910003fd 	mov	x29, sp
    d288:	f9000bf3 	str	x19, [sp, #16]
    d28c:	b00000d3 	adrp	x19, 26000 <__data_start>
    d290:	39404260 	ldrb	w0, [x19, #16]
    d294:	35000140 	cbnz	w0, d2bc <__do_global_dtors_aux+0x3c>
    d298:	900000c0 	adrp	x0, 25000 <code_1063@Base>
    d29c:	f947ec00 	ldr	x0, [x0, #4056]
    d2a0:	b4000080 	cbz	x0, d2b0 <__do_global_dtors_aux+0x30>
    d2a4:	b00000c0 	adrp	x0, 26000 <__data_start>
    d2a8:	f9400400 	ldr	x0, [x0, #8]
    d2ac:	97fff669 	bl	ac50 <__cxa_finalize@plt>
    d2b0:	97ffffd8 	bl	d210 <deregister_tm_clones>
    d2b4:	52800020 	mov	w0, #0x1                   	// #1
    d2b8:	39004260 	strb	w0, [x19, #16]
    d2bc:	f9400bf3 	ldr	x19, [sp, #16]
    d2c0:	a8c27bfd 	ldp	x29, x30, [sp], #32
    d2c4:	d65f03c0 	ret
    d2c8:	d503201f 	nop
    d2cc:	d503201f 	nop

000000000000d2d0 <frame_dummy>:
    d2d0:	17ffffdc 	b	d240 <register_tm_clones>

000000000000d2d4 <main>:
    d2d4:	a9be7bfd 	stp	x29, x30, [sp, #-32]!
    d2d8:	910003fd 	mov	x29, sp
    d2dc:	f9000fff 	str	xzr, [sp, #24]
    d2e0:	97fffa74 	bl	bcb0 <init@plt>
    d2e4:	900000c0 	adrp	x0, 25000 <code_1063@Base>
    d2e8:	f947f000 	ldr	x0, [x0, #4064]
    d2ec:	f9400003 	ldr	x3, [x0]
    d2f0:	900000c0 	adrp	x0, 25000 <code_1063@Base>
    d2f4:	f947f802 	ldr	x2, [x0, #4080]
    d2f8:	d0000020 	adrp	x0, 13000 <main+0x5d2c>
    d2fc:	913d2001 	add	x1, x0, #0xf48
    d300:	aa0303e0 	mov	x0, x3
    d304:	97ffff57 	bl	d060 <fprintf@plt>
    d308:	97fff876 	bl	b4e0 <code_498@plt>
    d30c:	93407c00 	sxtw	x0, w0
    d310:	f9400fe1 	ldr	x1, [sp, #24]
    d314:	8b000020 	add	x0, x1, x0
    d318:	f9000fe0 	str	x0, [sp, #24]
    d31c:	97fffd11 	bl	c760 <code_1023@plt>
    d320:	93407c00 	sxtw	x0, w0
    d324:	f9400fe1 	ldr	x1, [sp, #24]
    d328:	8b000020 	add	x0, x1, x0
    d32c:	f9000fe0 	str	x0, [sp, #24]
    d330:	97fffb68 	bl	c0d0 <code_518@plt>
    d334:	93407c00 	sxtw	x0, w0
    d338:	f9400fe1 	ldr	x1, [sp, #24]
    d33c:	8b000020 	add	x0, x1, x0
    d340:	f9000fe0 	str	x0, [sp, #24]
    d344:	97fff83b 	bl	b430 <code_1095@plt>
    d348:	93407c00 	sxtw	x0, w0
    d34c:	f9400fe1 	ldr	x1, [sp, #24]
    d350:	8b000020 	add	x0, x1, x0
    d354:	f9000fe0 	str	x0, [sp, #24]
    d358:	97fff902 	bl	b760 <code_291@plt>
    d35c:	93407c00 	sxtw	x0, w0
    d360:	f9400fe1 	ldr	x1, [sp, #24]
    d364:	8b000020 	add	x0, x1, x0
    d368:	f9000fe0 	str	x0, [sp, #24]
    d36c:	97fff4b5 	bl	a640 <code_641@plt>
    d370:	93407c00 	sxtw	x0, w0
    d374:	f9400fe1 	ldr	x1, [sp, #24]
    d378:	8b000020 	add	x0, x1, x0
    d37c:	f9000fe0 	str	x0, [sp, #24]
    d380:	97fffb54 	bl	c0d0 <code_518@plt>
    d384:	93407c00 	sxtw	x0, w0
    d388:	f9400fe1 	ldr	x1, [sp, #24]
    d38c:	8b000020 	add	x0, x1, x0
    d390:	f9000fe0 	str	x0, [sp, #24]
    d394:	97fff707 	bl	afb0 <code_568@plt>
    d398:	93407c00 	sxtw	x0, w0
    d39c:	f9400fe1 	ldr	x1, [sp, #24]
    d3a0:	8b000020 	add	x0, x1, x0
    d3a4:	f9000fe0 	str	x0, [sp, #24]
    d3a8:	97fff916 	bl	b800 <code_1400@plt>
    d3ac:	93407c00 	sxtw	x0, w0
    d3b0:	f9400fe1 	ldr	x1, [sp, #24]
    d3b4:	8b000020 	add	x0, x1, x0
    d3b8:	f9000fe0 	str	x0, [sp, #24]
    d3bc:	97fffa59 	bl	bd20 <code_785@plt>
    d3c0:	93407c00 	sxtw	x0, w0
    d3c4:	f9400fe1 	ldr	x1, [sp, #24]
    d3c8:	8b000020 	add	x0, x1, x0
    d3cc:	f9000fe0 	str	x0, [sp, #24]
    d3d0:	97fffa54 	bl	bd20 <code_785@plt>
    d3d4:	93407c00 	sxtw	x0, w0
    d3d8:	f9400fe1 	ldr	x1, [sp, #24]
    d3dc:	8b000020 	add	x0, x1, x0
    d3e0:	f9000fe0 	str	x0, [sp, #24]
    d3e4:	97fffb3b 	bl	c0d0 <code_518@plt>
    d3e8:	93407c00 	sxtw	x0, w0
    d3ec:	f9400fe1 	ldr	x1, [sp, #24]
    d3f0:	8b000020 	add	x0, x1, x0
    d3f4:	f9000fe0 	str	x0, [sp, #24]
    d3f8:	97fff9be 	bl	baf0 <code_974@plt>
    d3fc:	93407c00 	sxtw	x0, w0
    d400:	f9400fe1 	ldr	x1, [sp, #24]
    d404:	8b000020 	add	x0, x1, x0
    d408:	f9000fe0 	str	x0, [sp, #24]
    d40c:	97fffb0d 	bl	c040 <code_983@plt>
    d410:	93407c00 	sxtw	x0, w0
    d414:	f9400fe1 	ldr	x1, [sp, #24]
    d418:	8b000020 	add	x0, x1, x0
    d41c:	f9000fe0 	str	x0, [sp, #24]
    d420:	97fffb2c 	bl	c0d0 <code_518@plt>
    d424:	93407c00 	sxtw	x0, w0
    d428:	f9400fe1 	ldr	x1, [sp, #24]
    d42c:	8b000020 	add	x0, x1, x0
    d430:	f9000fe0 	str	x0, [sp, #24]
    d434:	97fffa3b 	bl	bd20 <code_785@plt>
    d438:	93407c00 	sxtw	x0, w0
    d43c:	f9400fe1 	ldr	x1, [sp, #24]
    d440:	8b000020 	add	x0, x1, x0
    d444:	f9000fe0 	str	x0, [sp, #24]
    d448:	97fff9aa 	bl	baf0 <code_974@plt>
    d44c:	93407c00 	sxtw	x0, w0
    d450:	f9400fe1 	ldr	x1, [sp, #24]
    d454:	8b000020 	add	x0, x1, x0
    d458:	f9000fe0 	str	x0, [sp, #24]
    d45c:	97fffb61 	bl	c1e0 <code_1051@plt>
    d460:	93407c00 	sxtw	x0, w0
    d464:	f9400fe1 	ldr	x1, [sp, #24]
    d468:	8b000020 	add	x0, x1, x0
    d46c:	f9000fe0 	str	x0, [sp, #24]
    d470:	97fffc8c 	bl	c6a0 <code_1310@plt>
    d474:	93407c00 	sxtw	x0, w0
    d478:	f9400fe1 	ldr	x1, [sp, #24]
    d47c:	8b000020 	add	x0, x1, x0
    d480:	f9000fe0 	str	x0, [sp, #24]
    d484:	97fff7df 	bl	b400 <code_1230@plt>
    d488:	93407c00 	sxtw	x0, w0
    d48c:	f9400fe1 	ldr	x1, [sp, #24]
    d490:	8b000020 	add	x0, x1, x0
    d494:	f9000fe0 	str	x0, [sp, #24]
    d498:	97fff8b6 	bl	b770 <code_1268@plt>
    d49c:	93407c00 	sxtw	x0, w0
    d4a0:	f9400fe1 	ldr	x1, [sp, #24]
    d4a4:	8b000020 	add	x0, x1, x0
    d4a8:	f9000fe0 	str	x0, [sp, #24]
    d4ac:	97fffd95 	bl	cb00 <code_1126@plt>
    d4b0:	93407c00 	sxtw	x0, w0
    d4b4:	f9400fe1 	ldr	x1, [sp, #24]
    d4b8:	8b000020 	add	x0, x1, x0
    d4bc:	f9000fe0 	str	x0, [sp, #24]
    d4c0:	97fffb04 	bl	c0d0 <code_518@plt>
    d4c4:	93407c00 	sxtw	x0, w0
    d4c8:	f9400fe1 	ldr	x1, [sp, #24]
    d4cc:	8b000020 	add	x0, x1, x0
    d4d0:	f9000fe0 	str	x0, [sp, #24]
    d4d4:	97fff8a7 	bl	b770 <code_1268@plt>
    d4d8:	93407c00 	sxtw	x0, w0
    d4dc:	f9400fe1 	ldr	x1, [sp, #24]
    d4e0:	8b000020 	add	x0, x1, x0
    d4e4:	f9000fe0 	str	x0, [sp, #24]
    d4e8:	97fff8fa 	bl	b8d0 <code_805@plt>
    d4ec:	93407c00 	sxtw	x0, w0
    d4f0:	f9400fe1 	ldr	x1, [sp, #24]
    d4f4:	8b000020 	add	x0, x1, x0
    d4f8:	f9000fe0 	str	x0, [sp, #24]
    d4fc:	97fff66d 	bl	aeb0 <code_1084@plt>
    d500:	93407c00 	sxtw	x0, w0
    d504:	f9400fe1 	ldr	x1, [sp, #24]
    d508:	8b000020 	add	x0, x1, x0
    d50c:	f9000fe0 	str	x0, [sp, #24]
    d510:	97fff958 	bl	ba70 <code_933@plt>
    d514:	93407c00 	sxtw	x0, w0
    d518:	f9400fe1 	ldr	x1, [sp, #24]
    d51c:	8b000020 	add	x0, x1, x0
    d520:	f9000fe0 	str	x0, [sp, #24]
    d524:	97fff8eb 	bl	b8d0 <code_805@plt>
    d528:	93407c00 	sxtw	x0, w0
    d52c:	f9400fe1 	ldr	x1, [sp, #24]
    d530:	8b000020 	add	x0, x1, x0
    d534:	f9000fe0 	str	x0, [sp, #24]
    d538:	97fff88e 	bl	b770 <code_1268@plt>
    d53c:	93407c00 	sxtw	x0, w0
    d540:	f9400fe1 	ldr	x1, [sp, #24]
    d544:	8b000020 	add	x0, x1, x0
    d548:	f9000fe0 	str	x0, [sp, #24]
    d54c:	97fffd0d 	bl	c980 <code_1059@plt>
    d550:	93407c00 	sxtw	x0, w0
    d554:	f9400fe1 	ldr	x1, [sp, #24]
    d558:	8b000020 	add	x0, x1, x0
    d55c:	f9000fe0 	str	x0, [sp, #24]
    d560:	97fff59c 	bl	abd0 <code_145@plt>
    d564:	93407c00 	sxtw	x0, w0
    d568:	f9400fe1 	ldr	x1, [sp, #24]
    d56c:	8b000020 	add	x0, x1, x0
    d570:	f9000fe0 	str	x0, [sp, #24]
    d574:	97fff87f 	bl	b770 <code_1268@plt>
    d578:	93407c00 	sxtw	x0, w0
    d57c:	f9400fe1 	ldr	x1, [sp, #24]
    d580:	8b000020 	add	x0, x1, x0
    d584:	f9000fe0 	str	x0, [sp, #24]
    d588:	97fffb16 	bl	c1e0 <code_1051@plt>
    d58c:	93407c00 	sxtw	x0, w0
    d590:	f9400fe1 	ldr	x1, [sp, #24]
    d594:	8b000020 	add	x0, x1, x0
    d598:	f9000fe0 	str	x0, [sp, #24]
    d59c:	97fff935 	bl	ba70 <code_933@plt>
    d5a0:	93407c00 	sxtw	x0, w0
    d5a4:	f9400fe1 	ldr	x1, [sp, #24]
    d5a8:	8b000020 	add	x0, x1, x0
    d5ac:	f9000fe0 	str	x0, [sp, #24]
    d5b0:	97fffc3c 	bl	c6a0 <code_1310@plt>
    d5b4:	93407c00 	sxtw	x0, w0
    d5b8:	f9400fe1 	ldr	x1, [sp, #24]
    d5bc:	8b000020 	add	x0, x1, x0
    d5c0:	f9000fe0 	str	x0, [sp, #24]
    d5c4:	97fff84f 	bl	b700 <code_769@plt>
    d5c8:	93407c00 	sxtw	x0, w0
    d5cc:	f9400fe1 	ldr	x1, [sp, #24]
    d5d0:	8b000020 	add	x0, x1, x0
    d5d4:	f9000fe0 	str	x0, [sp, #24]
    d5d8:	97fffd82 	bl	cbe0 <code_662@plt>
    d5dc:	93407c00 	sxtw	x0, w0
    d5e0:	f9400fe1 	ldr	x1, [sp, #24]
    d5e4:	8b000020 	add	x0, x1, x0
    d5e8:	f9000fe0 	str	x0, [sp, #24]
    d5ec:	97fffeb5 	bl	d0c0 <code_584@plt>
    d5f0:	93407c00 	sxtw	x0, w0
    d5f4:	f9400fe1 	ldr	x1, [sp, #24]
    d5f8:	8b000020 	add	x0, x1, x0
    d5fc:	f9000fe0 	str	x0, [sp, #24]
    d600:	97fff93c 	bl	baf0 <code_974@plt>
    d604:	93407c00 	sxtw	x0, w0
    d608:	f9400fe1 	ldr	x1, [sp, #24]
    d60c:	8b000020 	add	x0, x1, x0
    d610:	f9000fe0 	str	x0, [sp, #24]
    d614:	97fff627 	bl	aeb0 <code_1084@plt>
    d618:	93407c00 	sxtw	x0, w0
    d61c:	f9400fe1 	ldr	x1, [sp, #24]
    d620:	8b000020 	add	x0, x1, x0
    d624:	f9000fe0 	str	x0, [sp, #24]
    d628:	97fffd6e 	bl	cbe0 <code_662@plt>
    d62c:	93407c00 	sxtw	x0, w0
    d630:	f9400fe1 	ldr	x1, [sp, #24]
    d634:	8b000020 	add	x0, x1, x0
    d638:	f9000fe0 	str	x0, [sp, #24]
    d63c:	97fffaa5 	bl	c0d0 <code_518@plt>
    d640:	93407c00 	sxtw	x0, w0
    d644:	f9400fe1 	ldr	x1, [sp, #24]
    d648:	8b000020 	add	x0, x1, x0
    d64c:	f9000fe0 	str	x0, [sp, #24]
    d650:	97fffa7c 	bl	c040 <code_983@plt>
    d654:	93407c00 	sxtw	x0, w0
    d658:	f9400fe1 	ldr	x1, [sp, #24]
    d65c:	8b000020 	add	x0, x1, x0
    d660:	f9000fe0 	str	x0, [sp, #24]
    d664:	97fffd5f 	bl	cbe0 <code_662@plt>
    d668:	93407c00 	sxtw	x0, w0
    d66c:	f9400fe1 	ldr	x1, [sp, #24]
    d670:	8b000020 	add	x0, x1, x0
    d674:	f9000fe0 	str	x0, [sp, #24]
    d678:	97fff8fe 	bl	ba70 <code_933@plt>
    d67c:	93407c00 	sxtw	x0, w0
    d680:	f9400fe1 	ldr	x1, [sp, #24]
    d684:	8b000020 	add	x0, x1, x0
    d688:	f9000fe0 	str	x0, [sp, #24]
    d68c:	97fffa91 	bl	c0d0 <code_518@plt>
    d690:	93407c00 	sxtw	x0, w0
    d694:	f9400fe1 	ldr	x1, [sp, #24]
    d698:	8b000020 	add	x0, x1, x0
    d69c:	f9000fe0 	str	x0, [sp, #24]
    d6a0:	97fffb3c 	bl	c390 <code_1337@plt>
    d6a4:	93407c00 	sxtw	x0, w0
    d6a8:	f9400fe1 	ldr	x1, [sp, #24]
    d6ac:	8b000020 	add	x0, x1, x0
    d6b0:	f9000fe0 	str	x0, [sp, #24]
    d6b4:	97fff853 	bl	b800 <code_1400@plt>
    d6b8:	93407c00 	sxtw	x0, w0
    d6bc:	f9400fe1 	ldr	x1, [sp, #24]
    d6c0:	8b000020 	add	x0, x1, x0
    d6c4:	f9000fe0 	str	x0, [sp, #24]
    d6c8:	97fffe7e 	bl	d0c0 <code_584@plt>
    d6cc:	93407c00 	sxtw	x0, w0
    d6d0:	f9400fe1 	ldr	x1, [sp, #24]
    d6d4:	8b000020 	add	x0, x1, x0
    d6d8:	f9000fe0 	str	x0, [sp, #24]
    d6dc:	97fff87d 	bl	b8d0 <code_805@plt>
    d6e0:	93407c00 	sxtw	x0, w0
    d6e4:	f9400fe1 	ldr	x1, [sp, #24]
    d6e8:	8b000020 	add	x0, x1, x0
    d6ec:	f9000fe0 	str	x0, [sp, #24]
    d6f0:	97fff81c 	bl	b760 <code_291@plt>
    d6f4:	93407c00 	sxtw	x0, w0
    d6f8:	f9400fe1 	ldr	x1, [sp, #24]
    d6fc:	8b000020 	add	x0, x1, x0
    d700:	f9000fe0 	str	x0, [sp, #24]
    d704:	97fffb63 	bl	c490 <code_1415@plt>
    d708:	93407c00 	sxtw	x0, w0
    d70c:	f9400fe1 	ldr	x1, [sp, #24]
    d710:	8b000020 	add	x0, x1, x0
    d714:	f9000fe0 	str	x0, [sp, #24]
    d718:	97fffdbe 	bl	ce10 <code_856@plt>
    d71c:	93407c00 	sxtw	x0, w0
    d720:	f9400fe1 	ldr	x1, [sp, #24]
    d724:	8b000020 	add	x0, x1, x0
    d728:	f9000fe0 	str	x0, [sp, #24]
    d72c:	97fff3c5 	bl	a640 <code_641@plt>
    d730:	93407c00 	sxtw	x0, w0
    d734:	f9400fe1 	ldr	x1, [sp, #24]
    d738:	8b000020 	add	x0, x1, x0
    d73c:	f9000fe0 	str	x0, [sp, #24]
    d740:	97fffe60 	bl	d0c0 <code_584@plt>
    d744:	93407c00 	sxtw	x0, w0
    d748:	f9400fe1 	ldr	x1, [sp, #24]
    d74c:	8b000020 	add	x0, x1, x0
    d750:	f9000fe0 	str	x0, [sp, #24]
    d754:	97fffa5f 	bl	c0d0 <code_518@plt>
    d758:	93407c00 	sxtw	x0, w0
    d75c:	f9400fe1 	ldr	x1, [sp, #24]
    d760:	8b000020 	add	x0, x1, x0
    d764:	f9000fe0 	str	x0, [sp, #24]
    d768:	97fff51a 	bl	abd0 <code_145@plt>
    d76c:	93407c00 	sxtw	x0, w0
    d770:	f9400fe1 	ldr	x1, [sp, #24]
    d774:	8b000020 	add	x0, x1, x0
    d778:	f9000fe0 	str	x0, [sp, #24]
    d77c:	97fff9b1 	bl	be40 <code_876@plt>
    d780:	93407c00 	sxtw	x0, w0
    d784:	f9400fe1 	ldr	x1, [sp, #24]
    d788:	8b000020 	add	x0, x1, x0
    d78c:	f9000fe0 	str	x0, [sp, #24]
    d790:	97fffe4c 	bl	d0c0 <code_584@plt>
    d794:	93407c00 	sxtw	x0, w0
    d798:	f9400fe1 	ldr	x1, [sp, #24]
    d79c:	8b000020 	add	x0, x1, x0
    d7a0:	f9000fe0 	str	x0, [sp, #24]
    d7a4:	97fff8b3 	bl	ba70 <code_933@plt>
    d7a8:	93407c00 	sxtw	x0, w0
    d7ac:	f9400fe1 	ldr	x1, [sp, #24]
    d7b0:	8b000020 	add	x0, x1, x0
    d7b4:	f9000fe0 	str	x0, [sp, #24]
    d7b8:	97fffc72 	bl	c980 <code_1059@plt>
    d7bc:	93407c00 	sxtw	x0, w0
    d7c0:	f9400fe1 	ldr	x1, [sp, #24]
    d7c4:	8b000020 	add	x0, x1, x0
    d7c8:	f9000fe0 	str	x0, [sp, #24]
    d7cc:	97fff8ed 	bl	bb80 <code_1140@plt>
    d7d0:	93407c00 	sxtw	x0, w0
    d7d4:	f9400fe1 	ldr	x1, [sp, #24]
    d7d8:	8b000020 	add	x0, x1, x0
    d7dc:	f9000fe0 	str	x0, [sp, #24]
    d7e0:	97fffe38 	bl	d0c0 <code_584@plt>
    d7e4:	93407c00 	sxtw	x0, w0
    d7e8:	f9400fe1 	ldr	x1, [sp, #24]
    d7ec:	8b000020 	add	x0, x1, x0
    d7f0:	f9000fe0 	str	x0, [sp, #24]
    d7f4:	97fff56b 	bl	ada0 <code_317@plt>
    d7f8:	93407c00 	sxtw	x0, w0
    d7fc:	f9400fe1 	ldr	x1, [sp, #24]
    d800:	8b000020 	add	x0, x1, x0
    d804:	f9000fe0 	str	x0, [sp, #24]
    d808:	97fff7d6 	bl	b760 <code_291@plt>
    d80c:	93407c00 	sxtw	x0, w0
    d810:	f9400fe1 	ldr	x1, [sp, #24]
    d814:	8b000020 	add	x0, x1, x0
    d818:	f9000fe0 	str	x0, [sp, #24]
    d81c:	97fffb39 	bl	c500 <code_154@plt>
    d820:	93407c00 	sxtw	x0, w0
    d824:	f9400fe1 	ldr	x1, [sp, #24]
    d828:	8b000020 	add	x0, x1, x0
    d82c:	f9000fe0 	str	x0, [sp, #24]
    d830:	97fff8b0 	bl	baf0 <code_974@plt>
    d834:	93407c00 	sxtw	x0, w0
    d838:	f9400fe1 	ldr	x1, [sp, #24]
    d83c:	8b000020 	add	x0, x1, x0
    d840:	f9000fe0 	str	x0, [sp, #24]
    d844:	97fff583 	bl	ae50 <code_1260@plt>
    d848:	93407c00 	sxtw	x0, w0
    d84c:	f9400fe1 	ldr	x1, [sp, #24]
    d850:	8b000020 	add	x0, x1, x0
    d854:	f9000fe0 	str	x0, [sp, #24]
    d858:	97fff61a 	bl	b0c0 <code_676@plt>
    d85c:	93407c00 	sxtw	x0, w0
    d860:	f9400fe1 	ldr	x1, [sp, #24]
    d864:	8b000020 	add	x0, x1, x0
    d868:	f9000fe0 	str	x0, [sp, #24]
    d86c:	97fff7c1 	bl	b770 <code_1268@plt>
    d870:	93407c00 	sxtw	x0, w0
    d874:	f9400fe1 	ldr	x1, [sp, #24]
    d878:	8b000020 	add	x0, x1, x0
    d87c:	f9000fe0 	str	x0, [sp, #24]
    d880:	97fff81c 	bl	b8f0 <code_855@plt>
    d884:	93407c00 	sxtw	x0, w0
    d888:	f9400fe1 	ldr	x1, [sp, #24]
    d88c:	8b000020 	add	x0, x1, x0
    d890:	f9000fe0 	str	x0, [sp, #24]
    d894:	97fff7b7 	bl	b770 <code_1268@plt>
    d898:	93407c00 	sxtw	x0, w0
    d89c:	f9400fe1 	ldr	x1, [sp, #24]
    d8a0:	8b000020 	add	x0, x1, x0
    d8a4:	f9000fe0 	str	x0, [sp, #24]
    d8a8:	97fff4ca 	bl	abd0 <code_145@plt>
    d8ac:	93407c00 	sxtw	x0, w0
    d8b0:	f9400fe1 	ldr	x1, [sp, #24]
    d8b4:	8b000020 	add	x0, x1, x0
    d8b8:	f9000fe0 	str	x0, [sp, #24]
    d8bc:	97fffb79 	bl	c6a0 <code_1310@plt>
    d8c0:	93407c00 	sxtw	x0, w0
    d8c4:	f9400fe1 	ldr	x1, [sp, #24]
    d8c8:	8b000020 	add	x0, x1, x0
    d8cc:	f9000fe0 	str	x0, [sp, #24]
    d8d0:	97fff900 	bl	bcd0 <code_283@plt>
    d8d4:	93407c00 	sxtw	x0, w0
    d8d8:	f9400fe1 	ldr	x1, [sp, #24]
    d8dc:	8b000020 	add	x0, x1, x0
    d8e0:	f9000fe0 	str	x0, [sp, #24]
    d8e4:	97fff4cf 	bl	ac20 <code_1284@plt>
    d8e8:	93407c00 	sxtw	x0, w0
    d8ec:	f9400fe1 	ldr	x1, [sp, #24]
    d8f0:	8b000020 	add	x0, x1, x0
    d8f4:	f9000fe0 	str	x0, [sp, #24]
    d8f8:	97fff8b6 	bl	bbd0 <code_687@plt>
    d8fc:	93407c00 	sxtw	x0, w0
    d900:	f9400fe1 	ldr	x1, [sp, #24]
    d904:	8b000020 	add	x0, x1, x0
    d908:	f9000fe0 	str	x0, [sp, #24]
    d90c:	97fff821 	bl	b990 <code_448@plt>
    d910:	93407c00 	sxtw	x0, w0
    d914:	f9400fe1 	ldr	x1, [sp, #24]
    d918:	8b000020 	add	x0, x1, x0
    d91c:	f9000fe0 	str	x0, [sp, #24]
    d920:	97fff3cc 	bl	a850 <code_1309@plt>
    d924:	93407c00 	sxtw	x0, w0
    d928:	f9400fe1 	ldr	x1, [sp, #24]
    d92c:	8b000020 	add	x0, x1, x0
    d930:	f9000fe0 	str	x0, [sp, #24]
    d934:	97fffc13 	bl	c980 <code_1059@plt>
    d938:	93407c00 	sxtw	x0, w0
    d93c:	f9400fe1 	ldr	x1, [sp, #24]
    d940:	8b000020 	add	x0, x1, x0
    d944:	f9000fe0 	str	x0, [sp, #24]
    d948:	97fffb02 	bl	c550 <code_152@plt>
    d94c:	93407c00 	sxtw	x0, w0
    d950:	f9400fe1 	ldr	x1, [sp, #24]
    d954:	8b000020 	add	x0, x1, x0
    d958:	f9000fe0 	str	x0, [sp, #24]
    d95c:	97fff7a9 	bl	b800 <code_1400@plt>
    d960:	93407c00 	sxtw	x0, w0
    d964:	f9400fe1 	ldr	x1, [sp, #24]
    d968:	8b000020 	add	x0, x1, x0
    d96c:	f9000fe0 	str	x0, [sp, #24]
    d970:	97fff6b0 	bl	b430 <code_1095@plt>
    d974:	93407c00 	sxtw	x0, w0
    d978:	f9400fe1 	ldr	x1, [sp, #24]
    d97c:	8b000020 	add	x0, x1, x0
    d980:	f9000fe0 	str	x0, [sp, #24]
    d984:	97fff583 	bl	af90 <code_990@plt>
    d988:	93407c00 	sxtw	x0, w0
    d98c:	f9400fe1 	ldr	x1, [sp, #24]
    d990:	8b000020 	add	x0, x1, x0
    d994:	f9000fe0 	str	x0, [sp, #24]
    d998:	97fffa7e 	bl	c390 <code_1337@plt>
    d99c:	93407c00 	sxtw	x0, w0
    d9a0:	f9400fe1 	ldr	x1, [sp, #24]
    d9a4:	8b000020 	add	x0, x1, x0
    d9a8:	f9000fe0 	str	x0, [sp, #24]
    d9ac:	97fff9c9 	bl	c0d0 <code_518@plt>
    d9b0:	93407c00 	sxtw	x0, w0
    d9b4:	f9400fe1 	ldr	x1, [sp, #24]
    d9b8:	8b000020 	add	x0, x1, x0
    d9bc:	f9000fe0 	str	x0, [sp, #24]
    d9c0:	97fff4ec 	bl	ad70 <code_1011@plt>
    d9c4:	93407c00 	sxtw	x0, w0
    d9c8:	f9400fe1 	ldr	x1, [sp, #24]
    d9cc:	8b000020 	add	x0, x1, x0
    d9d0:	f9000fe0 	str	x0, [sp, #24]
    d9d4:	97fff763 	bl	b760 <code_291@plt>
    d9d8:	93407c00 	sxtw	x0, w0
    d9dc:	f9400fe1 	ldr	x1, [sp, #24]
    d9e0:	8b000020 	add	x0, x1, x0
    d9e4:	f9000fe0 	str	x0, [sp, #24]
    d9e8:	97fffdb6 	bl	d0c0 <code_584@plt>
    d9ec:	93407c00 	sxtw	x0, w0
    d9f0:	f9400fe1 	ldr	x1, [sp, #24]
    d9f4:	8b000020 	add	x0, x1, x0
    d9f8:	f9000fe0 	str	x0, [sp, #24]
    d9fc:	97fff9f9 	bl	c1e0 <code_1051@plt>
    da00:	93407c00 	sxtw	x0, w0
    da04:	f9400fe1 	ldr	x1, [sp, #24]
    da08:	8b000020 	add	x0, x1, x0
    da0c:	f9000fe0 	str	x0, [sp, #24]
    da10:	97fffbc4 	bl	c920 <code_321@plt>
    da14:	93407c00 	sxtw	x0, w0
    da18:	f9400fe1 	ldr	x1, [sp, #24]
    da1c:	8b000020 	add	x0, x1, x0
    da20:	f9000fe0 	str	x0, [sp, #24]
    da24:	97fffafb 	bl	c610 <code_158@plt>
    da28:	93407c00 	sxtw	x0, w0
    da2c:	f9400fe1 	ldr	x1, [sp, #24]
    da30:	8b000020 	add	x0, x1, x0
    da34:	f9000fe0 	str	x0, [sp, #24]
    da38:	97fff74e 	bl	b770 <code_1268@plt>
    da3c:	93407c00 	sxtw	x0, w0
    da40:	f9400fe1 	ldr	x1, [sp, #24]
    da44:	8b000020 	add	x0, x1, x0
    da48:	f9000fe0 	str	x0, [sp, #24]
    da4c:	97fff5d9 	bl	b1b0 <code_1026@plt>
    da50:	93407c00 	sxtw	x0, w0
    da54:	f9400fe1 	ldr	x1, [sp, #24]
    da58:	8b000020 	add	x0, x1, x0
    da5c:	f9000fe0 	str	x0, [sp, #24]
    da60:	97fffc18 	bl	cac0 <code_572@plt>
    da64:	93407c00 	sxtw	x0, w0
    da68:	f9400fe1 	ldr	x1, [sp, #24]
    da6c:	8b000020 	add	x0, x1, x0
    da70:	f9000fe0 	str	x0, [sp, #24]
    da74:	97fffc7b 	bl	cc60 <code_531@plt>
    da78:	93407c00 	sxtw	x0, w0
    da7c:	f9400fe1 	ldr	x1, [sp, #24]
    da80:	8b000020 	add	x0, x1, x0
    da84:	f9000fe0 	str	x0, [sp, #24]
    da88:	97fff992 	bl	c0d0 <code_518@plt>
    da8c:	93407c00 	sxtw	x0, w0
    da90:	f9400fe1 	ldr	x1, [sp, #24]
    da94:	8b000020 	add	x0, x1, x0
    da98:	f9000fe0 	str	x0, [sp, #24]
    da9c:	97fff2e9 	bl	a640 <code_641@plt>
    daa0:	93407c00 	sxtw	x0, w0
    daa4:	f9400fe1 	ldr	x1, [sp, #24]
    daa8:	8b000020 	add	x0, x1, x0
    daac:	f9000fe0 	str	x0, [sp, #24]
    dab0:	97fff45c 	bl	ac20 <code_1284@plt>
    dab4:	93407c00 	sxtw	x0, w0
    dab8:	f9400fe1 	ldr	x1, [sp, #24]
    dabc:	8b000020 	add	x0, x1, x0
    dac0:	f9000fe0 	str	x0, [sp, #24]
    dac4:	97fff7eb 	bl	ba70 <code_933@plt>
    dac8:	93407c00 	sxtw	x0, w0
    dacc:	f9400fe1 	ldr	x1, [sp, #24]
    dad0:	8b000020 	add	x0, x1, x0
    dad4:	f9000fe0 	str	x0, [sp, #24]
    dad8:	97fffd7a 	bl	d0c0 <code_584@plt>
    dadc:	93407c00 	sxtw	x0, w0
    dae0:	f9400fe1 	ldr	x1, [sp, #24]
    dae4:	8b000020 	add	x0, x1, x0
    dae8:	f9000fe0 	str	x0, [sp, #24]
    daec:	97fff439 	bl	abd0 <code_145@plt>
    daf0:	93407c00 	sxtw	x0, w0
    daf4:	f9400fe1 	ldr	x1, [sp, #24]
    daf8:	8b000020 	add	x0, x1, x0
    dafc:	f9000fe0 	str	x0, [sp, #24]
    db00:	97fff950 	bl	c040 <code_983@plt>
    db04:	93407c00 	sxtw	x0, w0
    db08:	f9400fe1 	ldr	x1, [sp, #24]
    db0c:	8b000020 	add	x0, x1, x0
    db10:	f9000fe0 	str	x0, [sp, #24]
    db14:	97fff73b 	bl	b800 <code_1400@plt>
    db18:	93407c00 	sxtw	x0, w0
    db1c:	f9400fe1 	ldr	x1, [sp, #24]
    db20:	8b000020 	add	x0, x1, x0
    db24:	f9000fe0 	str	x0, [sp, #24]
    db28:	97fff43e 	bl	ac20 <code_1284@plt>
    db2c:	93407c00 	sxtw	x0, w0
    db30:	f9400fe1 	ldr	x1, [sp, #24]
    db34:	8b000020 	add	x0, x1, x0
    db38:	f9000fe0 	str	x0, [sp, #24]
    db3c:	97fffad9 	bl	c6a0 <code_1310@plt>
    db40:	93407c00 	sxtw	x0, w0
    db44:	f9400fe1 	ldr	x1, [sp, #24]
    db48:	8b000020 	add	x0, x1, x0
    db4c:	f9000fe0 	str	x0, [sp, #24]
    db50:	97fff414 	bl	aba0 <code_92@plt>
    db54:	93407c00 	sxtw	x0, w0
    db58:	f9400fe1 	ldr	x1, [sp, #24]
    db5c:	8b000020 	add	x0, x1, x0
    db60:	f9000fe0 	str	x0, [sp, #24]
    db64:	97fff2b7 	bl	a640 <code_641@plt>
    db68:	93407c00 	sxtw	x0, w0
    db6c:	f9400fe1 	ldr	x1, [sp, #24]
    db70:	8b000020 	add	x0, x1, x0
    db74:	f9000fe0 	str	x0, [sp, #24]
    db78:	97fff756 	bl	b8d0 <code_805@plt>
    db7c:	93407c00 	sxtw	x0, w0
    db80:	f9400fe1 	ldr	x1, [sp, #24]
    db84:	8b000020 	add	x0, x1, x0
    db88:	f9000fe0 	str	x0, [sp, #24]
    db8c:	97fff5a9 	bl	b230 <code_761@plt>
    db90:	93407c00 	sxtw	x0, w0
    db94:	f9400fe1 	ldr	x1, [sp, #24]
    db98:	8b000020 	add	x0, x1, x0
    db9c:	f9000fe0 	str	x0, [sp, #24]
    dba0:	97fffbc8 	bl	cac0 <code_572@plt>
    dba4:	93407c00 	sxtw	x0, w0
    dba8:	f9400fe1 	ldr	x1, [sp, #24]
    dbac:	8b000020 	add	x0, x1, x0
    dbb0:	f9000fe0 	str	x0, [sp, #24]
    dbb4:	97fff8bb 	bl	bea0 <code_1133@plt>
    dbb8:	93407c00 	sxtw	x0, w0
    dbbc:	f9400fe1 	ldr	x1, [sp, #24]
    dbc0:	8b000020 	add	x0, x1, x0
    dbc4:	f9000fe0 	str	x0, [sp, #24]
    dbc8:	97fff6e6 	bl	b760 <code_291@plt>
    dbcc:	93407c00 	sxtw	x0, w0
    dbd0:	f9400fe1 	ldr	x1, [sp, #24]
    dbd4:	8b000020 	add	x0, x1, x0
    dbd8:	f9000fe0 	str	x0, [sp, #24]
    dbdc:	97fff465 	bl	ad70 <code_1011@plt>
    dbe0:	93407c00 	sxtw	x0, w0
    dbe4:	f9400fe1 	ldr	x1, [sp, #24]
    dbe8:	8b000020 	add	x0, x1, x0
    dbec:	f9000fe0 	str	x0, [sp, #24]
    dbf0:	97fff35c 	bl	a960 <code_300@plt>
    dbf4:	93407c00 	sxtw	x0, w0
    dbf8:	f9400fe1 	ldr	x1, [sp, #24]
    dbfc:	8b000020 	add	x0, x1, x0
    dc00:	f9000fe0 	str	x0, [sp, #24]
    dc04:	97fff5b3 	bl	b2d0 <code_1114@plt>
    dc08:	93407c00 	sxtw	x0, w0
    dc0c:	f9400fe1 	ldr	x1, [sp, #24]
    dc10:	8b000020 	add	x0, x1, x0
    dc14:	f9000fe0 	str	x0, [sp, #24]
    dc18:	97fff3ee 	bl	abd0 <code_145@plt>
    dc1c:	93407c00 	sxtw	x0, w0
    dc20:	f9400fe1 	ldr	x1, [sp, #24]
    dc24:	8b000020 	add	x0, x1, x0
    dc28:	f9000fe0 	str	x0, [sp, #24]
    dc2c:	97fffa81 	bl	c630 <code_1353@plt>
    dc30:	93407c00 	sxtw	x0, w0
    dc34:	f9400fe1 	ldr	x1, [sp, #24]
    dc38:	8b000020 	add	x0, x1, x0
    dc3c:	f9000fe0 	str	x0, [sp, #24]
    dc40:	97fffd58 	bl	d1a0 <code_688@plt>
    dc44:	93407c00 	sxtw	x0, w0
    dc48:	f9400fe1 	ldr	x1, [sp, #24]
    dc4c:	8b000020 	add	x0, x1, x0
    dc50:	f9000fe0 	str	x0, [sp, #24]
    dc54:	97fff727 	bl	b8f0 <code_855@plt>
    dc58:	93407c00 	sxtw	x0, w0
    dc5c:	f9400fe1 	ldr	x1, [sp, #24]
    dc60:	8b000020 	add	x0, x1, x0
    dc64:	f9000fe0 	str	x0, [sp, #24]
    dc68:	97fff782 	bl	ba70 <code_933@plt>
    dc6c:	93407c00 	sxtw	x0, w0
    dc70:	f9400fe1 	ldr	x1, [sp, #24]
    dc74:	8b000020 	add	x0, x1, x0
    dc78:	f9000fe0 	str	x0, [sp, #24]
    dc7c:	97fff829 	bl	bd20 <code_785@plt>
    dc80:	93407c00 	sxtw	x0, w0
    dc84:	f9400fe1 	ldr	x1, [sp, #24]
    dc88:	8b000020 	add	x0, x1, x0
    dc8c:	f9000fe0 	str	x0, [sp, #24]
    dc90:	97fff6b8 	bl	b770 <code_1268@plt>
    dc94:	93407c00 	sxtw	x0, w0
    dc98:	f9400fe1 	ldr	x1, [sp, #24]
    dc9c:	8b000020 	add	x0, x1, x0
    dca0:	f9000fe0 	str	x0, [sp, #24]
    dca4:	97fff773 	bl	ba70 <code_933@plt>
    dca8:	93407c00 	sxtw	x0, w0
    dcac:	f9400fe1 	ldr	x1, [sp, #24]
    dcb0:	8b000020 	add	x0, x1, x0
    dcb4:	f9000fe0 	str	x0, [sp, #24]
    dcb8:	97fff9ca 	bl	c3e0 <code_1374@plt>
    dcbc:	93407c00 	sxtw	x0, w0
    dcc0:	f9400fe1 	ldr	x1, [sp, #24]
    dcc4:	8b000020 	add	x0, x1, x0
    dcc8:	f9000fe0 	str	x0, [sp, #24]
    dccc:	97fffd15 	bl	d120 <code_543@plt>
    dcd0:	93407c00 	sxtw	x0, w0
    dcd4:	f9400fe1 	ldr	x1, [sp, #24]
    dcd8:	8b000020 	add	x0, x1, x0
    dcdc:	f9000fe0 	str	x0, [sp, #24]
    dce0:	97fff474 	bl	aeb0 <code_1084@plt>
    dce4:	93407c00 	sxtw	x0, w0
    dce8:	f9400fe1 	ldr	x1, [sp, #24]
    dcec:	8b000020 	add	x0, x1, x0
    dcf0:	f9000fe0 	str	x0, [sp, #24]
    dcf4:	97fffa6b 	bl	c6a0 <code_1310@plt>
    dcf8:	93407c00 	sxtw	x0, w0
    dcfc:	f9400fe1 	ldr	x1, [sp, #24]
    dd00:	8b000020 	add	x0, x1, x0
    dd04:	f9000fe0 	str	x0, [sp, #24]
    dd08:	97fffcbe 	bl	d000 <code_1243@plt>
    dd0c:	93407c00 	sxtw	x0, w0
    dd10:	f9400fe1 	ldr	x1, [sp, #24]
    dd14:	8b000020 	add	x0, x1, x0
    dd18:	f9000fe0 	str	x0, [sp, #24]
    dd1c:	97fffa65 	bl	c6b0 <code_262@plt>
    dd20:	93407c00 	sxtw	x0, w0
    dd24:	f9400fe1 	ldr	x1, [sp, #24]
    dd28:	8b000020 	add	x0, x1, x0
    dd2c:	f9000fe0 	str	x0, [sp, #24]
    dd30:	97fff460 	bl	aeb0 <code_1084@plt>
    dd34:	93407c00 	sxtw	x0, w0
    dd38:	f9400fe1 	ldr	x1, [sp, #24]
    dd3c:	8b000020 	add	x0, x1, x0
    dd40:	f9000fe0 	str	x0, [sp, #24]
    dd44:	97fff68b 	bl	b770 <code_1268@plt>
    dd48:	93407c00 	sxtw	x0, w0
    dd4c:	f9400fe1 	ldr	x1, [sp, #24]
    dd50:	8b000020 	add	x0, x1, x0
    dd54:	f9000fe0 	str	x0, [sp, #24]
    dd58:	97fff9a2 	bl	c3e0 <code_1374@plt>
    dd5c:	93407c00 	sxtw	x0, w0
    dd60:	f9400fe1 	ldr	x1, [sp, #24]
    dd64:	8b000020 	add	x0, x1, x0
    dd68:	f9000fe0 	str	x0, [sp, #24]
    dd6c:	97fff32d 	bl	aa20 <code_1407@plt>
    dd70:	93407c00 	sxtw	x0, w0
    dd74:	f9400fe1 	ldr	x1, [sp, #24]
    dd78:	8b000020 	add	x0, x1, x0
    dd7c:	f9000fe0 	str	x0, [sp, #24]
    dd80:	97fff45c 	bl	aef0 <code_311@plt>
    dd84:	93407c00 	sxtw	x0, w0
    dd88:	f9400fe1 	ldr	x1, [sp, #24]
    dd8c:	8b000020 	add	x0, x1, x0
    dd90:	f9000fe0 	str	x0, [sp, #24]
    dd94:	97fff38f 	bl	abd0 <code_145@plt>
    dd98:	93407c00 	sxtw	x0, w0
    dd9c:	f9400fe1 	ldr	x1, [sp, #24]
    dda0:	8b000020 	add	x0, x1, x0
    dda4:	f9000fe0 	str	x0, [sp, #24]
    dda8:	97fff96a 	bl	c350 <code_355@plt>
    ddac:	93407c00 	sxtw	x0, w0
    ddb0:	f9400fe1 	ldr	x1, [sp, #24]
    ddb4:	8b000020 	add	x0, x1, x0
    ddb8:	f9000fe0 	str	x0, [sp, #24]
    ddbc:	97fffa69 	bl	c760 <code_1023@plt>
    ddc0:	93407c00 	sxtw	x0, w0
    ddc4:	f9400fe1 	ldr	x1, [sp, #24]
    ddc8:	8b000020 	add	x0, x1, x0
    ddcc:	f9000fe0 	str	x0, [sp, #24]
    ddd0:	97fff288 	bl	a7f0 <code_1193@plt>
    ddd4:	93407c00 	sxtw	x0, w0
    ddd8:	f9400fe1 	ldr	x1, [sp, #24]
    dddc:	8b000020 	add	x0, x1, x0
    dde0:	f9000fe0 	str	x0, [sp, #24]
    dde4:	97fff42f 	bl	aea0 <code_466@plt>
    dde8:	93407c00 	sxtw	x0, w0
    ddec:	f9400fe1 	ldr	x1, [sp, #24]
    ddf0:	8b000020 	add	x0, x1, x0
    ddf4:	f9000fe0 	str	x0, [sp, #24]
    ddf8:	97fffb7a 	bl	cbe0 <code_662@plt>
    ddfc:	93407c00 	sxtw	x0, w0
    de00:	f9400fe1 	ldr	x1, [sp, #24]
    de04:	8b000020 	add	x0, x1, x0
    de08:	f9000fe0 	str	x0, [sp, #24]
    de0c:	97fff359 	bl	ab70 <code_147@plt>
    de10:	93407c00 	sxtw	x0, w0
    de14:	f9400fe1 	ldr	x1, [sp, #24]
    de18:	8b000020 	add	x0, x1, x0
    de1c:	f9000fe0 	str	x0, [sp, #24]
    de20:	97fff464 	bl	afb0 <code_568@plt>
    de24:	93407c00 	sxtw	x0, w0
    de28:	f9400fe1 	ldr	x1, [sp, #24]
    de2c:	8b000020 	add	x0, x1, x0
    de30:	f9000fe0 	str	x0, [sp, #24]
    de34:	97fff817 	bl	be90 <code_1308@plt>
    de38:	93407c00 	sxtw	x0, w0
    de3c:	f9400fe1 	ldr	x1, [sp, #24]
    de40:	8b000020 	add	x0, x1, x0
    de44:	f9000fe0 	str	x0, [sp, #24]
    de48:	97fffa16 	bl	c6a0 <code_1310@plt>
    de4c:	93407c00 	sxtw	x0, w0
    de50:	f9400fe1 	ldr	x1, [sp, #24]
    de54:	8b000020 	add	x0, x1, x0
    de58:	f9000fe0 	str	x0, [sp, #24]
    de5c:	97fff51d 	bl	b2d0 <code_1114@plt>
    de60:	93407c00 	sxtw	x0, w0
    de64:	f9400fe1 	ldr	x1, [sp, #24]
    de68:	8b000020 	add	x0, x1, x0
    de6c:	f9000fe0 	str	x0, [sp, #24]
    de70:	97fff278 	bl	a850 <code_1309@plt>
    de74:	93407c00 	sxtw	x0, w0
    de78:	f9400fe1 	ldr	x1, [sp, #24]
    de7c:	8b000020 	add	x0, x1, x0
    de80:	f9000fe0 	str	x0, [sp, #24]
    de84:	97fff1ef 	bl	a640 <code_641@plt>
    de88:	93407c00 	sxtw	x0, w0
    de8c:	f9400fe1 	ldr	x1, [sp, #24]
    de90:	8b000020 	add	x0, x1, x0
    de94:	f9000fe0 	str	x0, [sp, #24]
    de98:	97fff972 	bl	c460 <code_920@plt>
    de9c:	93407c00 	sxtw	x0, w0
    dea0:	f9400fe1 	ldr	x1, [sp, #24]
    dea4:	8b000020 	add	x0, x1, x0
    dea8:	f9000fe0 	str	x0, [sp, #24]
    deac:	97fff649 	bl	b7d0 <code_726@plt>
    deb0:	93407c00 	sxtw	x0, w0
    deb4:	f9400fe1 	ldr	x1, [sp, #24]
    deb8:	8b000020 	add	x0, x1, x0
    debc:	f9000fe0 	str	x0, [sp, #24]
    dec0:	97fff3f8 	bl	aea0 <code_466@plt>
    dec4:	93407c00 	sxtw	x0, w0
    dec8:	f9400fe1 	ldr	x1, [sp, #24]
    decc:	8b000020 	add	x0, x1, x0
    ded0:	f9000fe0 	str	x0, [sp, #24]
    ded4:	97fff327 	bl	ab70 <code_147@plt>
    ded8:	93407c00 	sxtw	x0, w0
    dedc:	f9400fe1 	ldr	x1, [sp, #24]
    dee0:	8b000020 	add	x0, x1, x0
    dee4:	f9000fe0 	str	x0, [sp, #24]
    dee8:	97fff9ee 	bl	c6a0 <code_1310@plt>
    deec:	93407c00 	sxtw	x0, w0
    def0:	f9400fe1 	ldr	x1, [sp, #24]
    def4:	8b000020 	add	x0, x1, x0
    def8:	f9000fe0 	str	x0, [sp, #24]
    defc:	97fff42d 	bl	afb0 <code_568@plt>
    df00:	93407c00 	sxtw	x0, w0
    df04:	f9400fe1 	ldr	x1, [sp, #24]
    df08:	8b000020 	add	x0, x1, x0
    df0c:	f9000fe0 	str	x0, [sp, #24]
    df10:	97fff868 	bl	c0b0 <code_590@plt>
    df14:	93407c00 	sxtw	x0, w0
    df18:	f9400fe1 	ldr	x1, [sp, #24]
    df1c:	8b000020 	add	x0, x1, x0
    df20:	f9000fe0 	str	x0, [sp, #24]
    df24:	97fff7eb 	bl	bed0 <code_842@plt>
    df28:	93407c00 	sxtw	x0, w0
    df2c:	f9400fe1 	ldr	x1, [sp, #24]
    df30:	8b000020 	add	x0, x1, x0
    df34:	f9000fe0 	str	x0, [sp, #24]
    df38:	97fff66e 	bl	b8f0 <code_855@plt>
    df3c:	93407c00 	sxtw	x0, w0
    df40:	f9400fe1 	ldr	x1, [sp, #24]
    df44:	8b000020 	add	x0, x1, x0
    df48:	f9000fe0 	str	x0, [sp, #24]
    df4c:	97fff839 	bl	c030 <code_1253@plt>
    df50:	93407c00 	sxtw	x0, w0
    df54:	f9400fe1 	ldr	x1, [sp, #24]
    df58:	8b000020 	add	x0, x1, x0
    df5c:	f9000fe0 	str	x0, [sp, #24]
    df60:	97fffad8 	bl	cac0 <code_572@plt>
    df64:	93407c00 	sxtw	x0, w0
    df68:	f9400fe1 	ldr	x1, [sp, #24]
    df6c:	8b000020 	add	x0, x1, x0
    df70:	f9000fe0 	str	x0, [sp, #24]
    df74:	97fffb1b 	bl	cbe0 <code_662@plt>
    df78:	93407c00 	sxtw	x0, w0
    df7c:	f9400fe1 	ldr	x1, [sp, #24]
    df80:	8b000020 	add	x0, x1, x0
    df84:	f9000fe0 	str	x0, [sp, #24]
    df88:	97fff5fa 	bl	b770 <code_1268@plt>
    df8c:	93407c00 	sxtw	x0, w0
    df90:	f9400fe1 	ldr	x1, [sp, #24]
    df94:	8b000020 	add	x0, x1, x0
    df98:	f9000fe0 	str	x0, [sp, #24]
    df9c:	97fff5b5 	bl	b670 <code_1129@plt>
    dfa0:	93407c00 	sxtw	x0, w0
    dfa4:	f9400fe1 	ldr	x1, [sp, #24]
    dfa8:	8b000020 	add	x0, x1, x0
    dfac:	f9000fe0 	str	x0, [sp, #24]
    dfb0:	97fff6b0 	bl	ba70 <code_933@plt>
    dfb4:	93407c00 	sxtw	x0, w0
    dfb8:	f9400fe1 	ldr	x1, [sp, #24]
    dfbc:	8b000020 	add	x0, x1, x0
    dfc0:	f9000fe0 	str	x0, [sp, #24]
    dfc4:	97fff8cf 	bl	c300 <code_1185@plt>
    dfc8:	93407c00 	sxtw	x0, w0
    dfcc:	f9400fe1 	ldr	x1, [sp, #24]
    dfd0:	8b000020 	add	x0, x1, x0
    dfd4:	f9000fe0 	str	x0, [sp, #24]
    dfd8:	97fff83e 	bl	c0d0 <code_518@plt>
    dfdc:	93407c00 	sxtw	x0, w0
    dfe0:	f9400fe1 	ldr	x1, [sp, #24]
    dfe4:	8b000020 	add	x0, x1, x0
    dfe8:	f9000fe0 	str	x0, [sp, #24]
    dfec:	97fff7b9 	bl	bed0 <code_842@plt>
    dff0:	93407c00 	sxtw	x0, w0
    dff4:	f9400fe1 	ldr	x1, [sp, #24]
    dff8:	8b000020 	add	x0, x1, x0
    dffc:	f9000fe0 	str	x0, [sp, #24]
    e000:	97fff6bc 	bl	baf0 <code_974@plt>
    e004:	93407c00 	sxtw	x0, w0
    e008:	f9400fe1 	ldr	x1, [sp, #24]
    e00c:	8b000020 	add	x0, x1, x0
    e010:	f9000fe0 	str	x0, [sp, #24]
    e014:	97fffa5b 	bl	c980 <code_1059@plt>
    e018:	93407c00 	sxtw	x0, w0
    e01c:	f9400fe1 	ldr	x1, [sp, #24]
    e020:	8b000020 	add	x0, x1, x0
    e024:	f9000fe0 	str	x0, [sp, #24]
    e028:	97fffb76 	bl	ce00 <code_800@plt>
    e02c:	93407c00 	sxtw	x0, w0
    e030:	f9400fe1 	ldr	x1, [sp, #24]
    e034:	8b000020 	add	x0, x1, x0
    e038:	f9000fe0 	str	x0, [sp, #24]
    e03c:	97fffc39 	bl	d120 <code_543@plt>
    e040:	93407c00 	sxtw	x0, w0
    e044:	f9400fe1 	ldr	x1, [sp, #24]
    e048:	8b000020 	add	x0, x1, x0
    e04c:	f9000fe0 	str	x0, [sp, #24]
    e050:	97fff994 	bl	c6a0 <code_1310@plt>
    e054:	93407c00 	sxtw	x0, w0
    e058:	f9400fe1 	ldr	x1, [sp, #24]
    e05c:	8b000020 	add	x0, x1, x0
    e060:	f9000fe0 	str	x0, [sp, #24]
    e064:	97fff2db 	bl	abd0 <code_145@plt>
    e068:	93407c00 	sxtw	x0, w0
    e06c:	f9400fe1 	ldr	x1, [sp, #24]
    e070:	8b000020 	add	x0, x1, x0
    e074:	f9000fe0 	str	x0, [sp, #24]
    e078:	97fff33e 	bl	ad70 <code_1011@plt>
    e07c:	93407c00 	sxtw	x0, w0
    e080:	f9400fe1 	ldr	x1, [sp, #24]
    e084:	8b000020 	add	x0, x1, x0
    e088:	f9000fe0 	str	x0, [sp, #24]
    e08c:	97fff5b9 	bl	b770 <code_1268@plt>
    e090:	93407c00 	sxtw	x0, w0
    e094:	f9400fe1 	ldr	x1, [sp, #24]
    e098:	8b000020 	add	x0, x1, x0
    e09c:	f9000fe0 	str	x0, [sp, #24]
    e0a0:	97fff78c 	bl	bed0 <code_842@plt>
    e0a4:	93407c00 	sxtw	x0, w0
    e0a8:	f9400fe1 	ldr	x1, [sp, #24]
    e0ac:	8b000020 	add	x0, x1, x0
    e0b0:	f9000fe0 	str	x0, [sp, #24]
    e0b4:	97fff897 	bl	c310 <code_1012@plt>
    e0b8:	93407c00 	sxtw	x0, w0
    e0bc:	f9400fe1 	ldr	x1, [sp, #24]
    e0c0:	8b000020 	add	x0, x1, x0
    e0c4:	f9000fe0 	str	x0, [sp, #24]
    e0c8:	97fff802 	bl	c0d0 <code_518@plt>
    e0cc:	93407c00 	sxtw	x0, w0
    e0d0:	f9400fe1 	ldr	x1, [sp, #24]
    e0d4:	8b000020 	add	x0, x1, x0
    e0d8:	f9000fe0 	str	x0, [sp, #24]
    e0dc:	97fff6a9 	bl	bb80 <code_1140@plt>
    e0e0:	93407c00 	sxtw	x0, w0
    e0e4:	f9400fe1 	ldr	x1, [sp, #24]
    e0e8:	8b000020 	add	x0, x1, x0
    e0ec:	f9000fe0 	str	x0, [sp, #24]
    e0f0:	97fff660 	bl	ba70 <code_933@plt>
    e0f4:	93407c00 	sxtw	x0, w0
    e0f8:	f9400fe1 	ldr	x1, [sp, #24]
    e0fc:	8b000020 	add	x0, x1, x0
    e100:	f9000fe0 	str	x0, [sp, #24]
    e104:	97fff767 	bl	bea0 <code_1133@plt>
    e108:	93407c00 	sxtw	x0, w0
    e10c:	f9400fe1 	ldr	x1, [sp, #24]
    e110:	8b000020 	add	x0, x1, x0
    e114:	f9000fe0 	str	x0, [sp, #24]
    e118:	97fff986 	bl	c730 <code_753@plt>
    e11c:	93407c00 	sxtw	x0, w0
    e120:	f9400fe1 	ldr	x1, [sp, #24]
    e124:	8b000020 	add	x0, x1, x0
    e128:	f9000fe0 	str	x0, [sp, #24]
    e12c:	97fff5e9 	bl	b8d0 <code_805@plt>
    e130:	93407c00 	sxtw	x0, w0
    e134:	f9400fe1 	ldr	x1, [sp, #24]
    e138:	8b000020 	add	x0, x1, x0
    e13c:	f9000fe0 	str	x0, [sp, #24]
    e140:	97fff8c8 	bl	c460 <code_920@plt>
    e144:	93407c00 	sxtw	x0, w0
    e148:	f9400fe1 	ldr	x1, [sp, #24]
    e14c:	8b000020 	add	x0, x1, x0
    e150:	f9000fe0 	str	x0, [sp, #24]
    e154:	97fff5ab 	bl	b800 <code_1400@plt>
    e158:	93407c00 	sxtw	x0, w0
    e15c:	f9400fe1 	ldr	x1, [sp, #24]
    e160:	8b000020 	add	x0, x1, x0
    e164:	f9000fe0 	str	x0, [sp, #24]
    e168:	97fffa76 	bl	cb40 <code_413@plt>
    e16c:	93407c00 	sxtw	x0, w0
    e170:	f9400fe1 	ldr	x1, [sp, #24]
    e174:	8b000020 	add	x0, x1, x0
    e178:	f9000fe0 	str	x0, [sp, #24]
    e17c:	97fff485 	bl	b390 <code_33@plt>
    e180:	93407c00 	sxtw	x0, w0
    e184:	f9400fe1 	ldr	x1, [sp, #24]
    e188:	8b000020 	add	x0, x1, x0
    e18c:	f9000fe0 	str	x0, [sp, #24]
    e190:	97fff638 	bl	ba70 <code_933@plt>
    e194:	93407c00 	sxtw	x0, w0
    e198:	f9400fe1 	ldr	x1, [sp, #24]
    e19c:	8b000020 	add	x0, x1, x0
    e1a0:	f9000fe0 	str	x0, [sp, #24]
    e1a4:	97fff73b 	bl	be90 <code_1308@plt>
    e1a8:	93407c00 	sxtw	x0, w0
    e1ac:	f9400fe1 	ldr	x1, [sp, #24]
    e1b0:	8b000020 	add	x0, x1, x0
    e1b4:	f9000fe0 	str	x0, [sp, #24]
    e1b8:	97fff6c6 	bl	bcd0 <code_283@plt>
    e1bc:	93407c00 	sxtw	x0, w0
    e1c0:	f9400fe1 	ldr	x1, [sp, #24]
    e1c4:	8b000020 	add	x0, x1, x0
    e1c8:	f9000fe0 	str	x0, [sp, #24]
    e1cc:	97fff289 	bl	abf0 <code_1188@plt>
    e1d0:	93407c00 	sxtw	x0, w0
    e1d4:	f9400fe1 	ldr	x1, [sp, #24]
    e1d8:	8b000020 	add	x0, x1, x0
    e1dc:	f9000fe0 	str	x0, [sp, #24]
    e1e0:	97fff99c 	bl	c850 <code_1@plt>
    e1e4:	93407c00 	sxtw	x0, w0
    e1e8:	f9400fe1 	ldr	x1, [sp, #24]
    e1ec:	8b000020 	add	x0, x1, x0
    e1f0:	f9000fe0 	str	x0, [sp, #24]
    e1f4:	97fff9e3 	bl	c980 <code_1059@plt>
    e1f8:	93407c00 	sxtw	x0, w0
    e1fc:	f9400fe1 	ldr	x1, [sp, #24]
    e200:	8b000020 	add	x0, x1, x0
    e204:	f9000fe0 	str	x0, [sp, #24]
    e208:	97fff9ee 	bl	c9c0 <code_963@plt>
    e20c:	93407c00 	sxtw	x0, w0
    e210:	f9400fe1 	ldr	x1, [sp, #24]
    e214:	8b000020 	add	x0, x1, x0
    e218:	f9000fe0 	str	x0, [sp, #24]
    e21c:	97fff7f1 	bl	c1e0 <code_1051@plt>
    e220:	93407c00 	sxtw	x0, w0
    e224:	f9400fe1 	ldr	x1, [sp, #24]
    e228:	8b000020 	add	x0, x1, x0
    e22c:	f9000fe0 	str	x0, [sp, #24]
    e230:	97fff900 	bl	c630 <code_1353@plt>
    e234:	93407c00 	sxtw	x0, w0
    e238:	f9400fe1 	ldr	x1, [sp, #24]
    e23c:	8b000020 	add	x0, x1, x0
    e240:	f9000fe0 	str	x0, [sp, #24]
    e244:	97fffabb 	bl	cd30 <code_1073@plt>
    e248:	93407c00 	sxtw	x0, w0
    e24c:	f9400fe1 	ldr	x1, [sp, #24]
    e250:	8b000020 	add	x0, x1, x0
    e254:	f9000fe0 	str	x0, [sp, #24]
    e258:	97fff236 	bl	ab30 <code_556@plt>
    e25c:	93407c00 	sxtw	x0, w0
    e260:	f9400fe1 	ldr	x1, [sp, #24]
    e264:	8b000020 	add	x0, x1, x0
    e268:	f9000fe0 	str	x0, [sp, #24]
    e26c:	97fff41d 	bl	b2e0 <code_369@plt>
    e270:	93407c00 	sxtw	x0, w0
    e274:	f9400fe1 	ldr	x1, [sp, #24]
    e278:	8b000020 	add	x0, x1, x0
    e27c:	f9000fe0 	str	x0, [sp, #24]
    e280:	97fff21c 	bl	aaf0 <code_591@plt>
    e284:	93407c00 	sxtw	x0, w0
    e288:	f9400fe1 	ldr	x1, [sp, #24]
    e28c:	8b000020 	add	x0, x1, x0
    e290:	f9000fe0 	str	x0, [sp, #24]
    e294:	97fffaff 	bl	ce90 <code_1106@plt>
    e298:	93407c00 	sxtw	x0, w0
    e29c:	f9400fe1 	ldr	x1, [sp, #24]
    e2a0:	8b000020 	add	x0, x1, x0
    e2a4:	f9000fe0 	str	x0, [sp, #24]
    e2a8:	97fff766 	bl	c040 <code_983@plt>
    e2ac:	93407c00 	sxtw	x0, w0
    e2b0:	f9400fe1 	ldr	x1, [sp, #24]
    e2b4:	8b000020 	add	x0, x1, x0
    e2b8:	f9000fe0 	str	x0, [sp, #24]
    e2bc:	97fff8fd 	bl	c6b0 <code_262@plt>
    e2c0:	93407c00 	sxtw	x0, w0
    e2c4:	f9400fe1 	ldr	x1, [sp, #24]
    e2c8:	8b000020 	add	x0, x1, x0
    e2cc:	f9000fe0 	str	x0, [sp, #24]
    e2d0:	97fff2a8 	bl	ad70 <code_1011@plt>
    e2d4:	93407c00 	sxtw	x0, w0
    e2d8:	f9400fe1 	ldr	x1, [sp, #24]
    e2dc:	8b000020 	add	x0, x1, x0
    e2e0:	f9000fe0 	str	x0, [sp, #24]
    e2e4:	97fff223 	bl	ab70 <code_147@plt>
    e2e8:	93407c00 	sxtw	x0, w0
    e2ec:	f9400fe1 	ldr	x1, [sp, #24]
    e2f0:	8b000020 	add	x0, x1, x0
    e2f4:	f9000fe0 	str	x0, [sp, #24]
    e2f8:	97fff376 	bl	b0d0 <code_159@plt>
    e2fc:	93407c00 	sxtw	x0, w0
    e300:	f9400fe1 	ldr	x1, [sp, #24]
    e304:	8b000020 	add	x0, x1, x0
    e308:	f9000fe0 	str	x0, [sp, #24]
    e30c:	97fff74d 	bl	c040 <code_983@plt>
    e310:	93407c00 	sxtw	x0, w0
    e314:	f9400fe1 	ldr	x1, [sp, #24]
    e318:	8b000020 	add	x0, x1, x0
    e31c:	f9000fe0 	str	x0, [sp, #24]
    e320:	97fff134 	bl	a7f0 <code_1193@plt>
    e324:	93407c00 	sxtw	x0, w0
    e328:	f9400fe1 	ldr	x1, [sp, #24]
    e32c:	8b000020 	add	x0, x1, x0
    e330:	f9000fe0 	str	x0, [sp, #24]
    e334:	97fff23b 	bl	ac20 <code_1284@plt>
    e338:	93407c00 	sxtw	x0, w0
    e33c:	f9400fe1 	ldr	x1, [sp, #24]
    e340:	8b000020 	add	x0, x1, x0
    e344:	f9000fe0 	str	x0, [sp, #24]
    e348:	97fffb66 	bl	d0e0 <code_1200@plt>
    e34c:	93407c00 	sxtw	x0, w0
    e350:	f9400fe1 	ldr	x1, [sp, #24]
    e354:	8b000020 	add	x0, x1, x0
    e358:	f9000fe0 	str	x0, [sp, #24]
    e35c:	97fff755 	bl	c0b0 <code_590@plt>
    e360:	93407c00 	sxtw	x0, w0
    e364:	f9400fe1 	ldr	x1, [sp, #24]
    e368:	8b000020 	add	x0, x1, x0
    e36c:	f9000fe0 	str	x0, [sp, #24]
    e370:	97fff734 	bl	c040 <code_983@plt>
    e374:	93407c00 	sxtw	x0, w0
    e378:	f9400fe1 	ldr	x1, [sp, #24]
    e37c:	8b000020 	add	x0, x1, x0
    e380:	f9000fe0 	str	x0, [sp, #24]
    e384:	97fff72f 	bl	c040 <code_983@plt>
    e388:	93407c00 	sxtw	x0, w0
    e38c:	f9400fe1 	ldr	x1, [sp, #24]
    e390:	8b000020 	add	x0, x1, x0
    e394:	f9000fe0 	str	x0, [sp, #24]
    e398:	97fff662 	bl	bd20 <code_785@plt>
    e39c:	93407c00 	sxtw	x0, w0
    e3a0:	f9400fe1 	ldr	x1, [sp, #24]
    e3a4:	8b000020 	add	x0, x1, x0
    e3a8:	f9000fe0 	str	x0, [sp, #24]
    e3ac:	97fff9c5 	bl	cac0 <code_572@plt>
    e3b0:	93407c00 	sxtw	x0, w0
    e3b4:	f9400fe1 	ldr	x1, [sp, #24]
    e3b8:	8b000020 	add	x0, x1, x0
    e3bc:	f9000fe0 	str	x0, [sp, #24]
    e3c0:	97fff828 	bl	c460 <code_920@plt>
    e3c4:	93407c00 	sxtw	x0, w0
    e3c8:	f9400fe1 	ldr	x1, [sp, #24]
    e3cc:	8b000020 	add	x0, x1, x0
    e3d0:	f9000fe0 	str	x0, [sp, #24]
    e3d4:	97fff653 	bl	bd20 <code_785@plt>
    e3d8:	93407c00 	sxtw	x0, w0
    e3dc:	f9400fe1 	ldr	x1, [sp, #24]
    e3e0:	8b000020 	add	x0, x1, x0
    e3e4:	f9000fe0 	str	x0, [sp, #24]
    e3e8:	97fff8de 	bl	c760 <code_1023@plt>
    e3ec:	93407c00 	sxtw	x0, w0
    e3f0:	f9400fe1 	ldr	x1, [sp, #24]
    e3f4:	8b000020 	add	x0, x1, x0
    e3f8:	f9000fe0 	str	x0, [sp, #24]
    e3fc:	97fff341 	bl	b100 <code_674@plt>
    e400:	93407c00 	sxtw	x0, w0
    e404:	f9400fe1 	ldr	x1, [sp, #24]
    e408:	8b000020 	add	x0, x1, x0
    e40c:	f9000fe0 	str	x0, [sp, #24]
    e410:	97fff5f8 	bl	bbf0 <code_403@plt>
    e414:	93407c00 	sxtw	x0, w0
    e418:	f9400fe1 	ldr	x1, [sp, #24]
    e41c:	8b000020 	add	x0, x1, x0
    e420:	f9000fe0 	str	x0, [sp, #24]
    e424:	97fff967 	bl	c9c0 <code_963@plt>
    e428:	93407c00 	sxtw	x0, w0
    e42c:	f9400fe1 	ldr	x1, [sp, #24]
    e430:	8b000020 	add	x0, x1, x0
    e434:	f9000fe0 	str	x0, [sp, #24]
    e438:	97fff6a6 	bl	bed0 <code_842@plt>
    e43c:	93407c00 	sxtw	x0, w0
    e440:	f9400fe1 	ldr	x1, [sp, #24]
    e444:	8b000020 	add	x0, x1, x0
    e448:	f9000fe0 	str	x0, [sp, #24]
    e44c:	97fff895 	bl	c6a0 <code_1310@plt>
    e450:	93407c00 	sxtw	x0, w0
    e454:	f9400fe1 	ldr	x1, [sp, #24]
    e458:	8b000020 	add	x0, x1, x0
    e45c:	f9000fe0 	str	x0, [sp, #24]
    e460:	97fff0cc 	bl	a790 <code_706@plt>
    e464:	93407c00 	sxtw	x0, w0
    e468:	f9400fe1 	ldr	x1, [sp, #24]
    e46c:	8b000020 	add	x0, x1, x0
    e470:	f9000fe0 	str	x0, [sp, #24]
    e474:	97fff88f 	bl	c6b0 <code_262@plt>
    e478:	93407c00 	sxtw	x0, w0
    e47c:	f9400fe1 	ldr	x1, [sp, #24]
    e480:	8b000020 	add	x0, x1, x0
    e484:	f9000fe0 	str	x0, [sp, #24]
    e488:	97fffa92 	bl	ced0 <code_893@plt>
    e48c:	93407c00 	sxtw	x0, w0
    e490:	f9400fe1 	ldr	x1, [sp, #24]
    e494:	8b000020 	add	x0, x1, x0
    e498:	f9000fe0 	str	x0, [sp, #24]
    e49c:	97fff9ad 	bl	cb50 <code_697@plt>
    e4a0:	93407c00 	sxtw	x0, w0
    e4a4:	f9400fe1 	ldr	x1, [sp, #24]
    e4a8:	8b000020 	add	x0, x1, x0
    e4ac:	f9000fe0 	str	x0, [sp, #24]
    e4b0:	97fff9c8 	bl	cbd0 <code_1128@plt>
    e4b4:	93407c00 	sxtw	x0, w0
    e4b8:	f9400fe1 	ldr	x1, [sp, #24]
    e4bc:	8b000020 	add	x0, x1, x0
    e4c0:	f9000fe0 	str	x0, [sp, #24]
    e4c4:	97fff8a7 	bl	c760 <code_1023@plt>
    e4c8:	93407c00 	sxtw	x0, w0
    e4cc:	f9400fe1 	ldr	x1, [sp, #24]
    e4d0:	8b000020 	add	x0, x1, x0
    e4d4:	f9000fe0 	str	x0, [sp, #24]
    e4d8:	97fff4ca 	bl	b800 <code_1400@plt>
    e4dc:	93407c00 	sxtw	x0, w0
    e4e0:	f9400fe1 	ldr	x1, [sp, #24]
    e4e4:	8b000020 	add	x0, x1, x0
    e4e8:	f9000fe0 	str	x0, [sp, #24]
    e4ec:	97fff6c9 	bl	c010 <code_97@plt>
    e4f0:	93407c00 	sxtw	x0, w0
    e4f4:	f9400fe1 	ldr	x1, [sp, #24]
    e4f8:	8b000020 	add	x0, x1, x0
    e4fc:	f9000fe0 	str	x0, [sp, #24]
    e500:	97fff9b8 	bl	cbe0 <code_662@plt>
    e504:	93407c00 	sxtw	x0, w0
    e508:	f9400fe1 	ldr	x1, [sp, #24]
    e50c:	8b000020 	add	x0, x1, x0
    e510:	f9000fe0 	str	x0, [sp, #24]
    e514:	97fff863 	bl	c6a0 <code_1310@plt>
    e518:	93407c00 	sxtw	x0, w0
    e51c:	f9400fe1 	ldr	x1, [sp, #24]
    e520:	8b000020 	add	x0, x1, x0
    e524:	f9000fe0 	str	x0, [sp, #24]
    e528:	97fff982 	bl	cb30 <code_169@plt>
    e52c:	93407c00 	sxtw	x0, w0
    e530:	f9400fe1 	ldr	x1, [sp, #24]
    e534:	8b000020 	add	x0, x1, x0
    e538:	f9000fe0 	str	x0, [sp, #24]
    e53c:	97fff489 	bl	b760 <code_291@plt>
    e540:	93407c00 	sxtw	x0, w0
    e544:	f9400fe1 	ldr	x1, [sp, #24]
    e548:	8b000020 	add	x0, x1, x0
    e54c:	f9000fe0 	str	x0, [sp, #24]
    e550:	97fff90c 	bl	c980 <code_1059@plt>
    e554:	93407c00 	sxtw	x0, w0
    e558:	f9400fe1 	ldr	x1, [sp, #24]
    e55c:	8b000020 	add	x0, x1, x0
    e560:	f9000fe0 	str	x0, [sp, #24]
    e564:	97fff35b 	bl	b2d0 <code_1114@plt>
    e568:	93407c00 	sxtw	x0, w0
    e56c:	f9400fe1 	ldr	x1, [sp, #24]
    e570:	8b000020 	add	x0, x1, x0
    e574:	f9000fe0 	str	x0, [sp, #24]
    e578:	97fff4d6 	bl	b8d0 <code_805@plt>
    e57c:	93407c00 	sxtw	x0, w0
    e580:	f9400fe1 	ldr	x1, [sp, #24]
    e584:	8b000020 	add	x0, x1, x0
    e588:	f9000fe0 	str	x0, [sp, #24]
    e58c:	97fff279 	bl	af70 <code_953@plt>
    e590:	93407c00 	sxtw	x0, w0
    e594:	f9400fe1 	ldr	x1, [sp, #24]
    e598:	8b000020 	add	x0, x1, x0
    e59c:	f9000fe0 	str	x0, [sp, #24]
    e5a0:	97fff4cc 	bl	b8d0 <code_805@plt>
    e5a4:	93407c00 	sxtw	x0, w0
    e5a8:	f9400fe1 	ldr	x1, [sp, #24]
    e5ac:	8b000020 	add	x0, x1, x0
    e5b0:	f9000fe0 	str	x0, [sp, #24]
    e5b4:	97fff8f3 	bl	c980 <code_1059@plt>
    e5b8:	93407c00 	sxtw	x0, w0
    e5bc:	f9400fe1 	ldr	x1, [sp, #24]
    e5c0:	8b000020 	add	x0, x1, x0
    e5c4:	f9000fe0 	str	x0, [sp, #24]
    e5c8:	97fff466 	bl	b760 <code_291@plt>
    e5cc:	93407c00 	sxtw	x0, w0
    e5d0:	f9400fe1 	ldr	x1, [sp, #24]
    e5d4:	8b000020 	add	x0, x1, x0
    e5d8:	f9000fe0 	str	x0, [sp, #24]
    e5dc:	97fff4c5 	bl	b8f0 <code_855@plt>
    e5e0:	93407c00 	sxtw	x0, w0
    e5e4:	f9400fe1 	ldr	x1, [sp, #24]
    e5e8:	8b000020 	add	x0, x1, x0
    e5ec:	f9000fe0 	str	x0, [sp, #24]
    e5f0:	97fff45c 	bl	b760 <code_291@plt>
    e5f4:	93407c00 	sxtw	x0, w0
    e5f8:	f9400fe1 	ldr	x1, [sp, #24]
    e5fc:	8b000020 	add	x0, x1, x0
    e600:	f9000fe0 	str	x0, [sp, #24]
    e604:	97fff6f7 	bl	c1e0 <code_1051@plt>
    e608:	93407c00 	sxtw	x0, w0
    e60c:	f9400fe1 	ldr	x1, [sp, #24]
    e610:	8b000020 	add	x0, x1, x0
    e614:	f9000fe0 	str	x0, [sp, #24]
    e618:	97fff1c6 	bl	ad30 <code_26@plt>
    e61c:	93407c00 	sxtw	x0, w0
    e620:	f9400fe1 	ldr	x1, [sp, #24]
    e624:	8b000020 	add	x0, x1, x0
    e628:	f9000fe0 	str	x0, [sp, #24]
    e62c:	97fff685 	bl	c040 <code_983@plt>
    e630:	93407c00 	sxtw	x0, w0
    e634:	f9400fe1 	ldr	x1, [sp, #24]
    e638:	8b000020 	add	x0, x1, x0
    e63c:	f9000fe0 	str	x0, [sp, #24]
    e640:	97fff600 	bl	be40 <code_876@plt>
    e644:	93407c00 	sxtw	x0, w0
    e648:	f9400fe1 	ldr	x1, [sp, #24]
    e64c:	8b000020 	add	x0, x1, x0
    e650:	f9000fe0 	str	x0, [sp, #24]
    e654:	97fffad3 	bl	d1a0 <code_688@plt>
    e658:	93407c00 	sxtw	x0, w0
    e65c:	f9400fe1 	ldr	x1, [sp, #24]
    e660:	8b000020 	add	x0, x1, x0
    e664:	f9000fe0 	str	x0, [sp, #24]
    e668:	97fff87a 	bl	c850 <code_1@plt>
    e66c:	93407c00 	sxtw	x0, w0
    e670:	f9400fe1 	ldr	x1, [sp, #24]
    e674:	8b000020 	add	x0, x1, x0
    e678:	f9000fe0 	str	x0, [sp, #24]
    e67c:	97fff315 	bl	b2d0 <code_1114@plt>
    e680:	93407c00 	sxtw	x0, w0
    e684:	f9400fe1 	ldr	x1, [sp, #24]
    e688:	8b000020 	add	x0, x1, x0
    e68c:	f9000fe0 	str	x0, [sp, #24]
    e690:	97fff1bc 	bl	ad80 <code_1013@plt>
    e694:	93407c00 	sxtw	x0, w0
    e698:	f9400fe1 	ldr	x1, [sp, #24]
    e69c:	8b000020 	add	x0, x1, x0
    e6a0:	f9000fe0 	str	x0, [sp, #24]
    e6a4:	97fff6e7 	bl	c240 <code_551@plt>
    e6a8:	93407c00 	sxtw	x0, w0
    e6ac:	f9400fe1 	ldr	x1, [sp, #24]
    e6b0:	8b000020 	add	x0, x1, x0
    e6b4:	f9000fe0 	str	x0, [sp, #24]
    e6b8:	97fffa22 	bl	cf40 <code_408@plt>
    e6bc:	93407c00 	sxtw	x0, w0
    e6c0:	f9400fe1 	ldr	x1, [sp, #24]
    e6c4:	8b000020 	add	x0, x1, x0
    e6c8:	f9000fe0 	str	x0, [sp, #24]
    e6cc:	97fff361 	bl	b450 <code_418@plt>
    e6d0:	93407c00 	sxtw	x0, w0
    e6d4:	f9400fe1 	ldr	x1, [sp, #24]
    e6d8:	8b000020 	add	x0, x1, x0
    e6dc:	f9000fe0 	str	x0, [sp, #24]
    e6e0:	97fff504 	bl	baf0 <code_974@plt>
    e6e4:	93407c00 	sxtw	x0, w0
    e6e8:	f9400fe1 	ldr	x1, [sp, #24]
    e6ec:	8b000020 	add	x0, x1, x0
    e6f0:	f9000fe0 	str	x0, [sp, #24]
    e6f4:	97fff677 	bl	c0d0 <code_518@plt>
    e6f8:	93407c00 	sxtw	x0, w0
    e6fc:	f9400fe1 	ldr	x1, [sp, #24]
    e700:	8b000020 	add	x0, x1, x0
    e704:	f9000fe0 	str	x0, [sp, #24]
    e708:	97fff1ea 	bl	aeb0 <code_1084@plt>
    e70c:	93407c00 	sxtw	x0, w0
    e710:	f9400fe1 	ldr	x1, [sp, #24]
    e714:	8b000020 	add	x0, x1, x0
    e718:	f9000fe0 	str	x0, [sp, #24]
    e71c:	97fff411 	bl	b760 <code_291@plt>
    e720:	93407c00 	sxtw	x0, w0
    e724:	f9400fe1 	ldr	x1, [sp, #24]
    e728:	8b000020 	add	x0, x1, x0
    e72c:	f9000fe0 	str	x0, [sp, #24]
    e730:	97fff344 	bl	b440 <code_492@plt>
    e734:	93407c00 	sxtw	x0, w0
    e738:	f9400fe1 	ldr	x1, [sp, #24]
    e73c:	8b000020 	add	x0, x1, x0
    e740:	f9000fe0 	str	x0, [sp, #24]
    e744:	97fff42f 	bl	b800 <code_1400@plt>
    e748:	93407c00 	sxtw	x0, w0
    e74c:	f9400fe1 	ldr	x1, [sp, #24]
    e750:	8b000020 	add	x0, x1, x0
    e754:	f9000fe0 	str	x0, [sp, #24]
    e758:	97fff65e 	bl	c0d0 <code_518@plt>
    e75c:	93407c00 	sxtw	x0, w0
    e760:	f9400fe1 	ldr	x1, [sp, #24]
    e764:	8b000020 	add	x0, x1, x0
    e768:	f9000fe0 	str	x0, [sp, #24]
    e76c:	97fff291 	bl	b1b0 <code_1026@plt>
    e770:	93407c00 	sxtw	x0, w0
    e774:	f9400fe1 	ldr	x1, [sp, #24]
    e778:	8b000020 	add	x0, x1, x0
    e77c:	f9000fe0 	str	x0, [sp, #24]
    e780:	97fff85c 	bl	c8f0 <code_865@plt>
    e784:	93407c00 	sxtw	x0, w0
    e788:	f9400fe1 	ldr	x1, [sp, #24]
    e78c:	8b000020 	add	x0, x1, x0
    e790:	f9000fe0 	str	x0, [sp, #24]
    e794:	97fff177 	bl	ad70 <code_1011@plt>
    e798:	93407c00 	sxtw	x0, w0
    e79c:	f9400fe1 	ldr	x1, [sp, #24]
    e7a0:	8b000020 	add	x0, x1, x0
    e7a4:	f9000fe0 	str	x0, [sp, #24]
    e7a8:	97fff2ce 	bl	b2e0 <code_369@plt>
    e7ac:	93407c00 	sxtw	x0, w0
    e7b0:	f9400fe1 	ldr	x1, [sp, #24]
    e7b4:	8b000020 	add	x0, x1, x0
    e7b8:	f9000fe0 	str	x0, [sp, #24]
    e7bc:	97fff6f5 	bl	c390 <code_1337@plt>
    e7c0:	93407c00 	sxtw	x0, w0
    e7c4:	f9400fe1 	ldr	x1, [sp, #24]
    e7c8:	8b000020 	add	x0, x1, x0
    e7cc:	f9000fe0 	str	x0, [sp, #24]
    e7d0:	97fffa74 	bl	d1a0 <code_688@plt>
    e7d4:	93407c00 	sxtw	x0, w0
    e7d8:	f9400fe1 	ldr	x1, [sp, #24]
    e7dc:	8b000020 	add	x0, x1, x0
    e7e0:	f9000fe0 	str	x0, [sp, #24]
    e7e4:	97fff60b 	bl	c010 <code_97@plt>
    e7e8:	93407c00 	sxtw	x0, w0
    e7ec:	f9400fe1 	ldr	x1, [sp, #24]
    e7f0:	8b000020 	add	x0, x1, x0
    e7f4:	f9000fe0 	str	x0, [sp, #24]
    e7f8:	97fff3fa 	bl	b7e0 <code_6@plt>
    e7fc:	93407c00 	sxtw	x0, w0
    e800:	f9400fe1 	ldr	x1, [sp, #24]
    e804:	8b000020 	add	x0, x1, x0
    e808:	f9000fe0 	str	x0, [sp, #24]
    e80c:	97fff5c1 	bl	bf10 <code_1380@plt>
    e810:	93407c00 	sxtw	x0, w0
    e814:	f9400fe1 	ldr	x1, [sp, #24]
    e818:	8b000020 	add	x0, x1, x0
    e81c:	f9000fe0 	str	x0, [sp, #24]
    e820:	97fff3d0 	bl	b760 <code_291@plt>
    e824:	93407c00 	sxtw	x0, w0
    e828:	f9400fe1 	ldr	x1, [sp, #24]
    e82c:	8b000020 	add	x0, x1, x0
    e830:	f9000fe0 	str	x0, [sp, #24]
    e834:	97fff267 	bl	b1d0 <code_1067@plt>
    e838:	93407c00 	sxtw	x0, w0
    e83c:	f9400fe1 	ldr	x1, [sp, #24]
    e840:	8b000020 	add	x0, x1, x0
    e844:	f9000fe0 	str	x0, [sp, #24]
    e848:	97fff1d2 	bl	af90 <code_990@plt>
    e84c:	93407c00 	sxtw	x0, w0
    e850:	f9400fe1 	ldr	x1, [sp, #24]
    e854:	8b000020 	add	x0, x1, x0
    e858:	f9000fe0 	str	x0, [sp, #24]
    e85c:	97fff1b9 	bl	af40 <code_1451@plt>
    e860:	93407c00 	sxtw	x0, w0
    e864:	f9400fe1 	ldr	x1, [sp, #24]
    e868:	8b000020 	add	x0, x1, x0
    e86c:	f9000fe0 	str	x0, [sp, #24]
    e870:	97fff3bc 	bl	b760 <code_291@plt>
    e874:	93407c00 	sxtw	x0, w0
    e878:	f9400fe1 	ldr	x1, [sp, #24]
    e87c:	8b000020 	add	x0, x1, x0
    e880:	f9000fe0 	str	x0, [sp, #24]
    e884:	97fff9e7 	bl	d020 <code_1437@plt>
    e888:	93407c00 	sxtw	x0, w0
    e88c:	f9400fe1 	ldr	x1, [sp, #24]
    e890:	8b000020 	add	x0, x1, x0
    e894:	f9000fe0 	str	x0, [sp, #24]
    e898:	97fff59e 	bl	bf10 <code_1380@plt>
    e89c:	93407c00 	sxtw	x0, w0
    e8a0:	f9400fe1 	ldr	x1, [sp, #24]
    e8a4:	8b000020 	add	x0, x1, x0
    e8a8:	f9000fe0 	str	x0, [sp, #24]
    e8ac:	97fff585 	bl	bec0 <code_807@plt>
    e8b0:	93407c00 	sxtw	x0, w0
    e8b4:	f9400fe1 	ldr	x1, [sp, #24]
    e8b8:	8b000020 	add	x0, x1, x0
    e8bc:	f9000fe0 	str	x0, [sp, #24]
    e8c0:	97fff3c4 	bl	b7d0 <code_726@plt>
    e8c4:	93407c00 	sxtw	x0, w0
    e8c8:	f9400fe1 	ldr	x1, [sp, #24]
    e8cc:	8b000020 	add	x0, x1, x0
    e8d0:	f9000fe0 	str	x0, [sp, #24]
    e8d4:	97fff15f 	bl	ae50 <code_1260@plt>
    e8d8:	93407c00 	sxtw	x0, w0
    e8dc:	f9400fe1 	ldr	x1, [sp, #24]
    e8e0:	8b000020 	add	x0, x1, x0
    e8e4:	f9000fe0 	str	x0, [sp, #24]
    e8e8:	97fff63e 	bl	c1e0 <code_1051@plt>
    e8ec:	93407c00 	sxtw	x0, w0
    e8f0:	f9400fe1 	ldr	x1, [sp, #24]
    e8f4:	8b000020 	add	x0, x1, x0
    e8f8:	f9000fe0 	str	x0, [sp, #24]
    e8fc:	97ffef85 	bl	a710 <code_1237@plt>
    e900:	93407c00 	sxtw	x0, w0
    e904:	f9400fe1 	ldr	x1, [sp, #24]
    e908:	8b000020 	add	x0, x1, x0
    e90c:	f9000fe0 	str	x0, [sp, #24]
    e910:	97fff3bc 	bl	b800 <code_1400@plt>
    e914:	93407c00 	sxtw	x0, w0
    e918:	f9400fe1 	ldr	x1, [sp, #24]
    e91c:	8b000020 	add	x0, x1, x0
    e920:	f9000fe0 	str	x0, [sp, #24]
    e924:	97fff56b 	bl	bed0 <code_842@plt>
    e928:	93407c00 	sxtw	x0, w0
    e92c:	f9400fe1 	ldr	x1, [sp, #24]
    e930:	8b000020 	add	x0, x1, x0
    e934:	f9000fe0 	str	x0, [sp, #24]
    e938:	97fff8fe 	bl	cd30 <code_1073@plt>
    e93c:	93407c00 	sxtw	x0, w0
    e940:	f9400fe1 	ldr	x1, [sp, #24]
    e944:	8b000020 	add	x0, x1, x0
    e948:	f9000fe0 	str	x0, [sp, #24]
    e94c:	97ffef3d 	bl	a640 <code_641@plt>
    e950:	93407c00 	sxtw	x0, w0
    e954:	f9400fe1 	ldr	x1, [sp, #24]
    e958:	8b000020 	add	x0, x1, x0
    e95c:	f9000fe0 	str	x0, [sp, #24]
    e960:	97fff550 	bl	bea0 <code_1133@plt>
    e964:	93407c00 	sxtw	x0, w0
    e968:	f9400fe1 	ldr	x1, [sp, #24]
    e96c:	8b000020 	add	x0, x1, x0
    e970:	f9000fe0 	str	x0, [sp, #24]
    e974:	97fff96f 	bl	cf30 <code_480@plt>
    e978:	93407c00 	sxtw	x0, w0
    e97c:	f9400fe1 	ldr	x1, [sp, #24]
    e980:	8b000020 	add	x0, x1, x0
    e984:	f9000fe0 	str	x0, [sp, #24]
    e988:	97fff776 	bl	c760 <code_1023@plt>
    e98c:	93407c00 	sxtw	x0, w0
    e990:	f9400fe1 	ldr	x1, [sp, #24]
    e994:	8b000020 	add	x0, x1, x0
    e998:	f9000fe0 	str	x0, [sp, #24]
    e99c:	97fff6bd 	bl	c490 <code_1415@plt>
    e9a0:	93407c00 	sxtw	x0, w0
    e9a4:	f9400fe1 	ldr	x1, [sp, #24]
    e9a8:	8b000020 	add	x0, x1, x0
    e9ac:	f9000fe0 	str	x0, [sp, #24]
    e9b0:	97fff878 	bl	cb90 <code_613@plt>
    e9b4:	93407c00 	sxtw	x0, w0
    e9b8:	f9400fe1 	ldr	x1, [sp, #24]
    e9bc:	8b000020 	add	x0, x1, x0
    e9c0:	f9000fe0 	str	x0, [sp, #24]
    e9c4:	97fff13b 	bl	aeb0 <code_1084@plt>
    e9c8:	93407c00 	sxtw	x0, w0
    e9cc:	f9400fe1 	ldr	x1, [sp, #24]
    e9d0:	8b000020 	add	x0, x1, x0
    e9d4:	f9000fe0 	str	x0, [sp, #24]
    e9d8:	97fff1b6 	bl	b0b0 <code_639@plt>
    e9dc:	93407c00 	sxtw	x0, w0
    e9e0:	f9400fe1 	ldr	x1, [sp, #24]
    e9e4:	8b000020 	add	x0, x1, x0
    e9e8:	f9000fe0 	str	x0, [sp, #24]
    e9ec:	97fff1a1 	bl	b070 <code_460@plt>
    e9f0:	93407c00 	sxtw	x0, w0
    e9f4:	f9400fe1 	ldr	x1, [sp, #24]
    e9f8:	8b000020 	add	x0, x1, x0
    e9fc:	f9000fe0 	str	x0, [sp, #24]
    ea00:	97fff728 	bl	c6a0 <code_1310@plt>
    ea04:	93407c00 	sxtw	x0, w0
    ea08:	f9400fe1 	ldr	x1, [sp, #24]
    ea0c:	8b000020 	add	x0, x1, x0
    ea10:	f9000fe0 	str	x0, [sp, #24]
    ea14:	97fff393 	bl	b860 <code_1107@plt>
    ea18:	93407c00 	sxtw	x0, w0
    ea1c:	f9400fe1 	ldr	x1, [sp, #24]
    ea20:	8b000020 	add	x0, x1, x0
    ea24:	f9000fe0 	str	x0, [sp, #24]
    ea28:	97fff7e6 	bl	c9c0 <code_963@plt>
    ea2c:	93407c00 	sxtw	x0, w0
    ea30:	f9400fe1 	ldr	x1, [sp, #24]
    ea34:	8b000020 	add	x0, x1, x0
    ea38:	f9000fe0 	str	x0, [sp, #24]
    ea3c:	97fff24d 	bl	b370 <code_1360@plt>
    ea40:	93407c00 	sxtw	x0, w0
    ea44:	f9400fe1 	ldr	x1, [sp, #24]
    ea48:	8b000020 	add	x0, x1, x0
    ea4c:	f9000fe0 	str	x0, [sp, #24]
    ea50:	97fff850 	bl	cb90 <code_613@plt>
    ea54:	93407c00 	sxtw	x0, w0
    ea58:	f9400fe1 	ldr	x1, [sp, #24]
    ea5c:	8b000020 	add	x0, x1, x0
    ea60:	f9000fe0 	str	x0, [sp, #24]
    ea64:	97fff783 	bl	c870 <code_3@plt>
    ea68:	93407c00 	sxtw	x0, w0
    ea6c:	f9400fe1 	ldr	x1, [sp, #24]
    ea70:	8b000020 	add	x0, x1, x0
    ea74:	f9000fe0 	str	x0, [sp, #24]
    ea78:	97fff202 	bl	b280 <code_328@plt>
    ea7c:	93407c00 	sxtw	x0, w0
    ea80:	f9400fe1 	ldr	x1, [sp, #24]
    ea84:	8b000020 	add	x0, x1, x0
    ea88:	f9000fe0 	str	x0, [sp, #24]
    ea8c:	97fff995 	bl	d0e0 <code_1200@plt>
    ea90:	93407c00 	sxtw	x0, w0
    ea94:	f9400fe1 	ldr	x1, [sp, #24]
    ea98:	8b000020 	add	x0, x1, x0
    ea9c:	f9000fe0 	str	x0, [sp, #24]
    eaa0:	97fff394 	bl	b8f0 <code_855@plt>
    eaa4:	93407c00 	sxtw	x0, w0
    eaa8:	f9400fe1 	ldr	x1, [sp, #24]
    eaac:	8b000020 	add	x0, x1, x0
    eab0:	f9000fe0 	str	x0, [sp, #24]
    eab4:	97fff353 	bl	b800 <code_1400@plt>
    eab8:	93407c00 	sxtw	x0, w0
    eabc:	f9400fe1 	ldr	x1, [sp, #24]
    eac0:	8b000020 	add	x0, x1, x0
    eac4:	f9000fe0 	str	x0, [sp, #24]
    eac8:	97fff38a 	bl	b8f0 <code_855@plt>
    eacc:	93407c00 	sxtw	x0, w0
    ead0:	f9400fe1 	ldr	x1, [sp, #24]
    ead4:	8b000020 	add	x0, x1, x0
    ead8:	f9000fe0 	str	x0, [sp, #24]
    eadc:	97fff255 	bl	b430 <code_1095@plt>
    eae0:	93407c00 	sxtw	x0, w0
    eae4:	f9400fe1 	ldr	x1, [sp, #24]
    eae8:	8b000020 	add	x0, x1, x0
    eaec:	f9000fe0 	str	x0, [sp, #24]
    eaf0:	97fff97c 	bl	d0e0 <code_1200@plt>
    eaf4:	93407c00 	sxtw	x0, w0
    eaf8:	f9400fe1 	ldr	x1, [sp, #24]
    eafc:	8b000020 	add	x0, x1, x0
    eb00:	f9000fe0 	str	x0, [sp, #24]
    eb04:	97fff24b 	bl	b430 <code_1095@plt>
    eb08:	93407c00 	sxtw	x0, w0
    eb0c:	f9400fe1 	ldr	x1, [sp, #24]
    eb10:	8b000020 	add	x0, x1, x0
    eb14:	f9000fe0 	str	x0, [sp, #24]
    eb18:	97fff3d6 	bl	ba70 <code_933@plt>
    eb1c:	93407c00 	sxtw	x0, w0
    eb20:	f9400fe1 	ldr	x1, [sp, #24]
    eb24:	8b000020 	add	x0, x1, x0
    eb28:	f9000fe0 	str	x0, [sp, #24]
    eb2c:	97fff335 	bl	b800 <code_1400@plt>
    eb30:	93407c00 	sxtw	x0, w0
    eb34:	f9400fe1 	ldr	x1, [sp, #24]
    eb38:	8b000020 	add	x0, x1, x0
    eb3c:	f9000fe0 	str	x0, [sp, #24]
    eb40:	97fff500 	bl	bf40 <code_470@plt>
    eb44:	93407c00 	sxtw	x0, w0
    eb48:	f9400fe1 	ldr	x1, [sp, #24]
    eb4c:	8b000020 	add	x0, x1, x0
    eb50:	f9000fe0 	str	x0, [sp, #24]
    eb54:	97fff3c7 	bl	ba70 <code_933@plt>
    eb58:	93407c00 	sxtw	x0, w0
    eb5c:	f9400fe1 	ldr	x1, [sp, #24]
    eb60:	8b000020 	add	x0, x1, x0
    eb64:	f9000fe0 	str	x0, [sp, #24]
    eb68:	97fff132 	bl	b030 <code_529@plt>
    eb6c:	93407c00 	sxtw	x0, w0
    eb70:	f9400fe1 	ldr	x1, [sp, #24]
    eb74:	8b000020 	add	x0, x1, x0
    eb78:	f9000fe0 	str	x0, [sp, #24]
    eb7c:	97fff005 	bl	ab90 <code_430@plt>
    eb80:	93407c00 	sxtw	x0, w0
    eb84:	f9400fe1 	ldr	x1, [sp, #24]
    eb88:	8b000020 	add	x0, x1, x0
    eb8c:	f9000fe0 	str	x0, [sp, #24]
    eb90:	97fff42c 	bl	bc40 <code_607@plt>
    eb94:	93407c00 	sxtw	x0, w0
    eb98:	f9400fe1 	ldr	x1, [sp, #24]
    eb9c:	8b000020 	add	x0, x1, x0
    eba0:	f9000fe0 	str	x0, [sp, #24]
    eba4:	97fff863 	bl	cd30 <code_1073@plt>
    eba8:	93407c00 	sxtw	x0, w0
    ebac:	f9400fe1 	ldr	x1, [sp, #24]
    ebb0:	8b000020 	add	x0, x1, x0
    ebb4:	f9000fe0 	str	x0, [sp, #24]
    ebb8:	97fff322 	bl	b840 <code_801@plt>
    ebbc:	93407c00 	sxtw	x0, w0
    ebc0:	f9400fe1 	ldr	x1, [sp, #24]
    ebc4:	8b000020 	add	x0, x1, x0
    ebc8:	f9000fe0 	str	x0, [sp, #24]
    ebcc:	97fff2f1 	bl	b790 <code_1072@plt>
    ebd0:	93407c00 	sxtw	x0, w0
    ebd4:	f9400fe1 	ldr	x1, [sp, #24]
    ebd8:	8b000020 	add	x0, x1, x0
    ebdc:	f9000fe0 	str	x0, [sp, #24]
    ebe0:	97fff33c 	bl	b8d0 <code_805@plt>
    ebe4:	93407c00 	sxtw	x0, w0
    ebe8:	f9400fe1 	ldr	x1, [sp, #24]
    ebec:	8b000020 	add	x0, x1, x0
    ebf0:	f9000fe0 	str	x0, [sp, #24]
    ebf4:	97ffef5f 	bl	a970 <code_473@plt>
    ebf8:	93407c00 	sxtw	x0, w0
    ebfc:	f9400fe1 	ldr	x1, [sp, #24]
    ec00:	8b000020 	add	x0, x1, x0
    ec04:	f9000fe0 	str	x0, [sp, #24]
    ec08:	97fff4b2 	bl	bed0 <code_842@plt>
    ec0c:	93407c00 	sxtw	x0, w0
    ec10:	f9400fe1 	ldr	x1, [sp, #24]
    ec14:	8b000020 	add	x0, x1, x0
    ec18:	f9000fe0 	str	x0, [sp, #24]
    ec1c:	97fff2f9 	bl	b800 <code_1400@plt>
    ec20:	93407c00 	sxtw	x0, w0
    ec24:	f9400fe1 	ldr	x1, [sp, #24]
    ec28:	8b000020 	add	x0, x1, x0
    ec2c:	f9000fe0 	str	x0, [sp, #24]
    ec30:	97fff204 	bl	b440 <code_492@plt>
    ec34:	93407c00 	sxtw	x0, w0
    ec38:	f9400fe1 	ldr	x1, [sp, #24]
    ec3c:	8b000020 	add	x0, x1, x0
    ec40:	f9000fe0 	str	x0, [sp, #24]
    ec44:	97ffef47 	bl	a960 <code_300@plt>
    ec48:	93407c00 	sxtw	x0, w0
    ec4c:	f9400fe1 	ldr	x1, [sp, #24]
    ec50:	8b000020 	add	x0, x1, x0
    ec54:	f9000fe0 	str	x0, [sp, #24]
    ec58:	97fff77e 	bl	ca50 <code_576@plt>
    ec5c:	93407c00 	sxtw	x0, w0
    ec60:	f9400fe1 	ldr	x1, [sp, #24]
    ec64:	8b000020 	add	x0, x1, x0
    ec68:	f9000fe0 	str	x0, [sp, #24]
    ec6c:	97fff0c9 	bl	af90 <code_990@plt>
    ec70:	93407c00 	sxtw	x0, w0
    ec74:	f9400fe1 	ldr	x1, [sp, #24]
    ec78:	8b000020 	add	x0, x1, x0
    ec7c:	f9000fe0 	str	x0, [sp, #24]
    ec80:	97fff7e0 	bl	cc00 <code_290@plt>
    ec84:	93407c00 	sxtw	x0, w0
    ec88:	f9400fe1 	ldr	x1, [sp, #24]
    ec8c:	8b000020 	add	x0, x1, x0
    ec90:	f9000fe0 	str	x0, [sp, #24]
    ec94:	97fff47f 	bl	be90 <code_1308@plt>
    ec98:	93407c00 	sxtw	x0, w0
    ec9c:	f9400fe1 	ldr	x1, [sp, #24]
    eca0:	8b000020 	add	x0, x1, x0
    eca4:	f9000fe0 	str	x0, [sp, #24]
    eca8:	97ffefbe 	bl	aba0 <code_92@plt>
    ecac:	93407c00 	sxtw	x0, w0
    ecb0:	f9400fe1 	ldr	x1, [sp, #24]
    ecb4:	8b000020 	add	x0, x1, x0
    ecb8:	f9000fe0 	str	x0, [sp, #24]
    ecbc:	97fff36d 	bl	ba70 <code_933@plt>
    ecc0:	93407c00 	sxtw	x0, w0
    ecc4:	f9400fe1 	ldr	x1, [sp, #24]
    ecc8:	8b000020 	add	x0, x1, x0
    eccc:	f9000fe0 	str	x0, [sp, #24]
    ecd0:	97fff6a4 	bl	c760 <code_1023@plt>
    ecd4:	93407c00 	sxtw	x0, w0
    ecd8:	f9400fe1 	ldr	x1, [sp, #24]
    ecdc:	8b000020 	add	x0, x1, x0
    ece0:	f9000fe0 	str	x0, [sp, #24]
    ece4:	97fff34b 	bl	ba10 <code_1246@plt>
    ece8:	93407c00 	sxtw	x0, w0
    ecec:	f9400fe1 	ldr	x1, [sp, #24]
    ecf0:	8b000020 	add	x0, x1, x0
    ecf4:	f9000fe0 	str	x0, [sp, #24]
    ecf8:	97fff4be 	bl	bff0 <code_944@plt>
    ecfc:	93407c00 	sxtw	x0, w0
    ed00:	f9400fe1 	ldr	x1, [sp, #24]
    ed04:	8b000020 	add	x0, x1, x0
    ed08:	f9000fe0 	str	x0, [sp, #24]
    ed0c:	97fff44d 	bl	be40 <code_876@plt>
    ed10:	93407c00 	sxtw	x0, w0
    ed14:	f9400fe1 	ldr	x1, [sp, #24]
    ed18:	8b000020 	add	x0, x1, x0
    ed1c:	f9000fe0 	str	x0, [sp, #24]
    ed20:	97fff060 	bl	aea0 <code_466@plt>
    ed24:	93407c00 	sxtw	x0, w0
    ed28:	f9400fe1 	ldr	x1, [sp, #24]
    ed2c:	8b000020 	add	x0, x1, x0
    ed30:	f9000fe0 	str	x0, [sp, #24]
    ed34:	97fff757 	bl	ca90 <code_574@plt>
    ed38:	93407c00 	sxtw	x0, w0
    ed3c:	f9400fe1 	ldr	x1, [sp, #24]
    ed40:	8b000020 	add	x0, x1, x0
    ed44:	f9000fe0 	str	x0, [sp, #24]
    ed48:	97fff686 	bl	c760 <code_1023@plt>
    ed4c:	93407c00 	sxtw	x0, w0
    ed50:	f9400fe1 	ldr	x1, [sp, #24]
    ed54:	8b000020 	add	x0, x1, x0
    ed58:	f9000fe0 	str	x0, [sp, #24]
    ed5c:	97fff1ed 	bl	b510 <code_925@plt>
    ed60:	93407c00 	sxtw	x0, w0
    ed64:	f9400fe1 	ldr	x1, [sp, #24]
    ed68:	8b000020 	add	x0, x1, x0
    ed6c:	f9000fe0 	str	x0, [sp, #24]
    ed70:	97fff314 	bl	b9c0 <code_1399@plt>
    ed74:	93407c00 	sxtw	x0, w0
    ed78:	f9400fe1 	ldr	x1, [sp, #24]
    ed7c:	8b000020 	add	x0, x1, x0
    ed80:	f9000fe0 	str	x0, [sp, #24]
    ed84:	97fff5db 	bl	c4f0 <code_1120@plt>
    ed88:	93407c00 	sxtw	x0, w0
    ed8c:	f9400fe1 	ldr	x1, [sp, #24]
    ed90:	8b000020 	add	x0, x1, x0
    ed94:	f9000fe0 	str	x0, [sp, #24]
    ed98:	97fff806 	bl	cdb0 <code_334@plt>
    ed9c:	93407c00 	sxtw	x0, w0
    eda0:	f9400fe1 	ldr	x1, [sp, #24]
    eda4:	8b000020 	add	x0, x1, x0
    eda8:	f9000fe0 	str	x0, [sp, #24]
    edac:	97ffef91 	bl	abf0 <code_1188@plt>
    edb0:	93407c00 	sxtw	x0, w0
    edb4:	f9400fe1 	ldr	x1, [sp, #24]
    edb8:	8b000020 	add	x0, x1, x0
    edbc:	f9000fe0 	str	x0, [sp, #24]
    edc0:	97fff0ec 	bl	b170 <code_224@plt>
    edc4:	93407c00 	sxtw	x0, w0
    edc8:	f9400fe1 	ldr	x1, [sp, #24]
    edcc:	8b000020 	add	x0, x1, x0
    edd0:	f9000fe0 	str	x0, [sp, #24]
    edd4:	97fff8f3 	bl	d1a0 <code_688@plt>
    edd8:	93407c00 	sxtw	x0, w0
    eddc:	f9400fe1 	ldr	x1, [sp, #24]
    ede0:	8b000020 	add	x0, x1, x0
    ede4:	f9000fe0 	str	x0, [sp, #24]
    ede8:	97fff78a 	bl	cc10 <code_218@plt>
    edec:	93407c00 	sxtw	x0, w0
    edf0:	f9400fe1 	ldr	x1, [sp, #24]
    edf4:	8b000020 	add	x0, x1, x0
    edf8:	f9000fe0 	str	x0, [sp, #24]
    edfc:	97fff401 	bl	be00 <code_203@plt>
    ee00:	93407c00 	sxtw	x0, w0
    ee04:	f9400fe1 	ldr	x1, [sp, #24]
    ee08:	8b000020 	add	x0, x1, x0
    ee0c:	f9000fe0 	str	x0, [sp, #24]
    ee10:	97fff4a8 	bl	c0b0 <code_590@plt>
    ee14:	93407c00 	sxtw	x0, w0
    ee18:	f9400fe1 	ldr	x1, [sp, #24]
    ee1c:	8b000020 	add	x0, x1, x0
    ee20:	f9000fe0 	str	x0, [sp, #24]
    ee24:	97fff7bb 	bl	cd10 <code_48@plt>
    ee28:	93407c00 	sxtw	x0, w0
    ee2c:	f9400fe1 	ldr	x1, [sp, #24]
    ee30:	8b000020 	add	x0, x1, x0
    ee34:	f9000fe0 	str	x0, [sp, #24]
    ee38:	97fff722 	bl	cac0 <code_572@plt>
    ee3c:	93407c00 	sxtw	x0, w0
    ee40:	f9400fe1 	ldr	x1, [sp, #24]
    ee44:	8b000020 	add	x0, x1, x0
    ee48:	f9000fe0 	str	x0, [sp, #24]
    ee4c:	97fff8b5 	bl	d120 <code_543@plt>
    ee50:	93407c00 	sxtw	x0, w0
    ee54:	f9400fe1 	ldr	x1, [sp, #24]
    ee58:	8b000020 	add	x0, x1, x0
    ee5c:	f9000fe0 	str	x0, [sp, #24]
    ee60:	97fff694 	bl	c8b0 <code_1361@plt>
    ee64:	93407c00 	sxtw	x0, w0
    ee68:	f9400fe1 	ldr	x1, [sp, #24]
    ee6c:	8b000020 	add	x0, x1, x0
    ee70:	f9000fe0 	str	x0, [sp, #24]
    ee74:	97fff7ab 	bl	cd20 <code_1401@plt>
    ee78:	93407c00 	sxtw	x0, w0
    ee7c:	f9400fe1 	ldr	x1, [sp, #24]
    ee80:	8b000020 	add	x0, x1, x0
    ee84:	f9000fe0 	str	x0, [sp, #24]
    ee88:	97fff582 	bl	c490 <code_1415@plt>
    ee8c:	93407c00 	sxtw	x0, w0
    ee90:	f9400fe1 	ldr	x1, [sp, #24]
    ee94:	8b000020 	add	x0, x1, x0
    ee98:	f9000fe0 	str	x0, [sp, #24]
    ee9c:	97fff695 	bl	c8f0 <code_865@plt>
    eea0:	93407c00 	sxtw	x0, w0
    eea4:	f9400fe1 	ldr	x1, [sp, #24]
    eea8:	8b000020 	add	x0, x1, x0
    eeac:	f9000fe0 	str	x0, [sp, #24]
    eeb0:	97fff6bc 	bl	c9a0 <code_924@plt>
    eeb4:	93407c00 	sxtw	x0, w0
    eeb8:	f9400fe1 	ldr	x1, [sp, #24]
    eebc:	8b000020 	add	x0, x1, x0
    eec0:	f9000fe0 	str	x0, [sp, #24]
    eec4:	97ffef87 	bl	ace0 <code_799@plt>
    eec8:	93407c00 	sxtw	x0, w0
    eecc:	f9400fe1 	ldr	x1, [sp, #24]
    eed0:	8b000020 	add	x0, x1, x0
    eed4:	f9000fe0 	str	x0, [sp, #24]
    eed8:	97fff45a 	bl	c040 <code_983@plt>
    eedc:	93407c00 	sxtw	x0, w0
    eee0:	f9400fe1 	ldr	x1, [sp, #24]
    eee4:	8b000020 	add	x0, x1, x0
    eee8:	f9000fe0 	str	x0, [sp, #24]
    eeec:	97fff1f1 	bl	b6b0 <code_254@plt>
    eef0:	93407c00 	sxtw	x0, w0
    eef4:	f9400fe1 	ldr	x1, [sp, #24]
    eef8:	8b000020 	add	x0, x1, x0
    eefc:	f9000fe0 	str	x0, [sp, #24]
    ef00:	97ffef9c 	bl	ad70 <code_1011@plt>
    ef04:	93407c00 	sxtw	x0, w0
    ef08:	f9400fe1 	ldr	x1, [sp, #24]
    ef0c:	8b000020 	add	x0, x1, x0
    ef10:	f9000fe0 	str	x0, [sp, #24]
    ef14:	97ffeedb 	bl	aa80 <code_943@plt>
    ef18:	93407c00 	sxtw	x0, w0
    ef1c:	f9400fe1 	ldr	x1, [sp, #24]
    ef20:	8b000020 	add	x0, x1, x0
    ef24:	f9000fe0 	str	x0, [sp, #24]
    ef28:	97ffede6 	bl	a6c0 <code_208@plt>
    ef2c:	93407c00 	sxtw	x0, w0
    ef30:	f9400fe1 	ldr	x1, [sp, #24]
    ef34:	8b000020 	add	x0, x1, x0
    ef38:	f9000fe0 	str	x0, [sp, #24]
    ef3c:	97fff37d 	bl	bd30 <code_505@plt>
    ef40:	93407c00 	sxtw	x0, w0
    ef44:	f9400fe1 	ldr	x1, [sp, #24]
    ef48:	8b000020 	add	x0, x1, x0
    ef4c:	f9000fe0 	str	x0, [sp, #24]
    ef50:	97fff764 	bl	cce0 <code_1071@plt>
    ef54:	93407c00 	sxtw	x0, w0
    ef58:	f9400fe1 	ldr	x1, [sp, #24]
    ef5c:	8b000020 	add	x0, x1, x0
    ef60:	f9000fe0 	str	x0, [sp, #24]
    ef64:	97fff887 	bl	d180 <code_1476@plt>
    ef68:	93407c00 	sxtw	x0, w0
    ef6c:	f9400fe1 	ldr	x1, [sp, #24]
    ef70:	8b000020 	add	x0, x1, x0
    ef74:	f9000fe0 	str	x0, [sp, #24]
    ef78:	97fff006 	bl	af90 <code_990@plt>
    ef7c:	93407c00 	sxtw	x0, w0
    ef80:	f9400fe1 	ldr	x1, [sp, #24]
    ef84:	8b000020 	add	x0, x1, x0
    ef88:	f9000fe0 	str	x0, [sp, #24]
    ef8c:	97fff21d 	bl	b800 <code_1400@plt>
    ef90:	93407c00 	sxtw	x0, w0
    ef94:	f9400fe1 	ldr	x1, [sp, #24]
    ef98:	8b000020 	add	x0, x1, x0
    ef9c:	f9000fe0 	str	x0, [sp, #24]
    efa0:	97fff7cc 	bl	ced0 <code_893@plt>
    efa4:	93407c00 	sxtw	x0, w0
    efa8:	f9400fe1 	ldr	x1, [sp, #24]
    efac:	8b000020 	add	x0, x1, x0
    efb0:	f9000fe0 	str	x0, [sp, #24]
    efb4:	97fff5bb 	bl	c6a0 <code_1310@plt>
    efb8:	93407c00 	sxtw	x0, w0
    efbc:	f9400fe1 	ldr	x1, [sp, #24]
    efc0:	8b000020 	add	x0, x1, x0
    efc4:	f9000fe0 	str	x0, [sp, #24]
    efc8:	97fff14a 	bl	b4f0 <code_1099@plt>
    efcc:	93407c00 	sxtw	x0, w0
    efd0:	f9400fe1 	ldr	x1, [sp, #24]
    efd4:	8b000020 	add	x0, x1, x0
    efd8:	f9000fe0 	str	x0, [sp, #24]
    efdc:	97fff281 	bl	b9e0 <code_1434@plt>
    efe0:	93407c00 	sxtw	x0, w0
    efe4:	f9400fe1 	ldr	x1, [sp, #24]
    efe8:	8b000020 	add	x0, x1, x0
    efec:	f9000fe0 	str	x0, [sp, #24]
    eff0:	97ffeee0 	bl	ab70 <code_147@plt>
    eff4:	93407c00 	sxtw	x0, w0
    eff8:	f9400fe1 	ldr	x1, [sp, #24]
    effc:	8b000020 	add	x0, x1, x0
    f000:	f9000fe0 	str	x0, [sp, #24]
    f004:	97fff433 	bl	c0d0 <code_518@plt>
    f008:	93407c00 	sxtw	x0, w0
    f00c:	f9400fe1 	ldr	x1, [sp, #24]
    f010:	8b000020 	add	x0, x1, x0
    f014:	f9000fe0 	str	x0, [sp, #24]
    f018:	97fff146 	bl	b530 <code_1468@plt>
    f01c:	93407c00 	sxtw	x0, w0
    f020:	f9400fe1 	ldr	x1, [sp, #24]
    f024:	8b000020 	add	x0, x1, x0
    f028:	f9000fe0 	str	x0, [sp, #24]
    f02c:	97fff429 	bl	c0d0 <code_518@plt>
    f030:	93407c00 	sxtw	x0, w0
    f034:	f9400fe1 	ldr	x1, [sp, #24]
    f038:	8b000020 	add	x0, x1, x0
    f03c:	f9000fe0 	str	x0, [sp, #24]
    f040:	97ffee4c 	bl	a970 <code_473@plt>
    f044:	93407c00 	sxtw	x0, w0
    f048:	f9400fe1 	ldr	x1, [sp, #24]
    f04c:	8b000020 	add	x0, x1, x0
    f050:	f9000fe0 	str	x0, [sp, #24]
    f054:	97fff0db 	bl	b3c0 <code_862@plt>
    f058:	93407c00 	sxtw	x0, w0
    f05c:	f9400fe1 	ldr	x1, [sp, #24]
    f060:	8b000020 	add	x0, x1, x0
    f064:	f9000fe0 	str	x0, [sp, #24]
    f068:	97ffedd6 	bl	a7c0 <code_849@plt>
    f06c:	93407c00 	sxtw	x0, w0
    f070:	f9400fe1 	ldr	x1, [sp, #24]
    f074:	8b000020 	add	x0, x1, x0
    f078:	f9000fe0 	str	x0, [sp, #24]
    f07c:	97ffefa1 	bl	af00 <code_1377@plt>
    f080:	93407c00 	sxtw	x0, w0
    f084:	f9400fe1 	ldr	x1, [sp, #24]
    f088:	8b000020 	add	x0, x1, x0
    f08c:	f9000fe0 	str	x0, [sp, #24]
    f090:	97fff05c 	bl	b200 <code_754@plt>
    f094:	93407c00 	sxtw	x0, w0
    f098:	f9400fe1 	ldr	x1, [sp, #24]
    f09c:	8b000020 	add	x0, x1, x0
    f0a0:	f9000fe0 	str	x0, [sp, #24]
    f0a4:	97fff20b 	bl	b8d0 <code_805@plt>
    f0a8:	93407c00 	sxtw	x0, w0
    f0ac:	f9400fe1 	ldr	x1, [sp, #24]
    f0b0:	8b000020 	add	x0, x1, x0
    f0b4:	f9000fe0 	str	x0, [sp, #24]
    f0b8:	97fff5e6 	bl	c850 <code_1@plt>
    f0bc:	93407c00 	sxtw	x0, w0
    f0c0:	f9400fe1 	ldr	x1, [sp, #24]
    f0c4:	8b000020 	add	x0, x1, x0
    f0c8:	f9000fe0 	str	x0, [sp, #24]
    f0cc:	97fff705 	bl	cce0 <code_1071@plt>
    f0d0:	93407c00 	sxtw	x0, w0
    f0d4:	f9400fe1 	ldr	x1, [sp, #24]
    f0d8:	8b000020 	add	x0, x1, x0
    f0dc:	f9000fe0 	str	x0, [sp, #24]
    f0e0:	97fff490 	bl	c320 <code_783@plt>
    f0e4:	93407c00 	sxtw	x0, w0
    f0e8:	f9400fe1 	ldr	x1, [sp, #24]
    f0ec:	8b000020 	add	x0, x1, x0
    f0f0:	f9000fe0 	str	x0, [sp, #24]
    f0f4:	97fff5c7 	bl	c810 <code_221@plt>
    f0f8:	93407c00 	sxtw	x0, w0
    f0fc:	f9400fe1 	ldr	x1, [sp, #24]
    f100:	8b000020 	add	x0, x1, x0
    f104:	f9000fe0 	str	x0, [sp, #24]
    f108:	97fff44a 	bl	c230 <code_101@plt>
    f10c:	93407c00 	sxtw	x0, w0
    f110:	f9400fe1 	ldr	x1, [sp, #24]
    f114:	8b000020 	add	x0, x1, x0
    f118:	f9000fe0 	str	x0, [sp, #24]
    f11c:	97fff5c5 	bl	c830 <code_828@plt>
    f120:	93407c00 	sxtw	x0, w0
    f124:	f9400fe1 	ldr	x1, [sp, #24]
    f128:	8b000020 	add	x0, x1, x0
    f12c:	f9000fe0 	str	x0, [sp, #24]
    f130:	97fff618 	bl	c990 <code_1426@plt>
    f134:	93407c00 	sxtw	x0, w0
    f138:	f9400fe1 	ldr	x1, [sp, #24]
    f13c:	8b000020 	add	x0, x1, x0
    f140:	f9000fe0 	str	x0, [sp, #24]
    f144:	97fff03b 	bl	b230 <code_761@plt>
    f148:	93407c00 	sxtw	x0, w0
    f14c:	f9400fe1 	ldr	x1, [sp, #24]
    f150:	8b000020 	add	x0, x1, x0
    f154:	f9000fe0 	str	x0, [sp, #24]
    f158:	97fff76a 	bl	cf00 <code_1394@plt>
    f15c:	93407c00 	sxtw	x0, w0
    f160:	f9400fe1 	ldr	x1, [sp, #24]
    f164:	8b000020 	add	x0, x1, x0
    f168:	f9000fe0 	str	x0, [sp, #24]
    f16c:	97ffee41 	bl	aa70 <code_906@plt>
    f170:	93407c00 	sxtw	x0, w0
    f174:	f9400fe1 	ldr	x1, [sp, #24]
    f178:	8b000020 	add	x0, x1, x0
    f17c:	f9000fe0 	str	x0, [sp, #24]
    f180:	97fff054 	bl	b2d0 <code_1114@plt>
    f184:	93407c00 	sxtw	x0, w0
    f188:	f9400fe1 	ldr	x1, [sp, #24]
    f18c:	8b000020 	add	x0, x1, x0
    f190:	f9000fe0 	str	x0, [sp, #24]
    f194:	97fff337 	bl	be70 <code_1137@plt>
    f198:	93407c00 	sxtw	x0, w0
    f19c:	f9400fe1 	ldr	x1, [sp, #24]
    f1a0:	8b000020 	add	x0, x1, x0
    f1a4:	f9000fe0 	str	x0, [sp, #24]
    f1a8:	97ffee9a 	bl	ac10 <code_186@plt>
    f1ac:	93407c00 	sxtw	x0, w0
    f1b0:	f9400fe1 	ldr	x1, [sp, #24]
    f1b4:	8b000020 	add	x0, x1, x0
    f1b8:	f9000fe0 	str	x0, [sp, #24]
    f1bc:	97fff395 	bl	c010 <code_97@plt>
    f1c0:	93407c00 	sxtw	x0, w0
    f1c4:	f9400fe1 	ldr	x1, [sp, #24]
    f1c8:	8b000020 	add	x0, x1, x0
    f1cc:	f9000fe0 	str	x0, [sp, #24]
    f1d0:	97fff650 	bl	cb10 <code_71@plt>
    f1d4:	93407c00 	sxtw	x0, w0
    f1d8:	f9400fe1 	ldr	x1, [sp, #24]
    f1dc:	8b000020 	add	x0, x1, x0
    f1e0:	f9000fe0 	str	x0, [sp, #24]
    f1e4:	97ffeee7 	bl	ad80 <code_1013@plt>
    f1e8:	93407c00 	sxtw	x0, w0
    f1ec:	f9400fe1 	ldr	x1, [sp, #24]
    f1f0:	8b000020 	add	x0, x1, x0
    f1f4:	f9000fe0 	str	x0, [sp, #24]
    f1f8:	97ffee4e 	bl	ab30 <code_556@plt>
    f1fc:	93407c00 	sxtw	x0, w0
    f200:	f9400fe1 	ldr	x1, [sp, #24]
    f204:	8b000020 	add	x0, x1, x0
    f208:	f9000fe0 	str	x0, [sp, #24]
    f20c:	97ffef3d 	bl	af00 <code_1377@plt>
    f210:	93407c00 	sxtw	x0, w0
    f214:	f9400fe1 	ldr	x1, [sp, #24]
    f218:	8b000020 	add	x0, x1, x0
    f21c:	f9000fe0 	str	x0, [sp, #24]
    f220:	97fff10c 	bl	b650 <code_663@plt>
    f224:	93407c00 	sxtw	x0, w0
    f228:	f9400fe1 	ldr	x1, [sp, #24]
    f22c:	8b000020 	add	x0, x1, x0
    f230:	f9000fe0 	str	x0, [sp, #24]
    f234:	97fff277 	bl	bc10 <code_659@plt>
    f238:	93407c00 	sxtw	x0, w0
    f23c:	f9400fe1 	ldr	x1, [sp, #24]
    f240:	8b000020 	add	x0, x1, x0
    f244:	f9000fe0 	str	x0, [sp, #24]
    f248:	97ffed1e 	bl	a6c0 <code_208@plt>
    f24c:	93407c00 	sxtw	x0, w0
    f250:	f9400fe1 	ldr	x1, [sp, #24]
    f254:	8b000020 	add	x0, x1, x0
    f258:	f9000fe0 	str	x0, [sp, #24]
    f25c:	97fff615 	bl	cab0 <code_73@plt>
    f260:	93407c00 	sxtw	x0, w0
    f264:	f9400fe1 	ldr	x1, [sp, #24]
    f268:	8b000020 	add	x0, x1, x0
    f26c:	f9000fe0 	str	x0, [sp, #24]
    f270:	97fff6c4 	bl	cd80 <code_1269@plt>
    f274:	93407c00 	sxtw	x0, w0
    f278:	f9400fe1 	ldr	x1, [sp, #24]
    f27c:	8b000020 	add	x0, x1, x0
    f280:	f9000fe0 	str	x0, [sp, #24]
    f284:	97fff203 	bl	ba90 <code_1242@plt>
    f288:	93407c00 	sxtw	x0, w0
    f28c:	f9400fe1 	ldr	x1, [sp, #24]
    f290:	8b000020 	add	x0, x1, x0
    f294:	f9000fe0 	str	x0, [sp, #24]
    f298:	97fff1ca 	bl	b9c0 <code_1399@plt>
    f29c:	93407c00 	sxtw	x0, w0
    f2a0:	f9400fe1 	ldr	x1, [sp, #24]
    f2a4:	8b000020 	add	x0, x1, x0
    f2a8:	f9000fe0 	str	x0, [sp, #24]
    f2ac:	97fff269 	bl	bc50 <code_657@plt>
    f2b0:	93407c00 	sxtw	x0, w0
    f2b4:	f9400fe1 	ldr	x1, [sp, #24]
    f2b8:	8b000020 	add	x0, x1, x0
    f2bc:	f9000fe0 	str	x0, [sp, #24]
    f2c0:	97ffefdc 	bl	b230 <code_761@plt>
    f2c4:	93407c00 	sxtw	x0, w0
    f2c8:	f9400fe1 	ldr	x1, [sp, #24]
    f2cc:	8b000020 	add	x0, x1, x0
    f2d0:	f9000fe0 	str	x0, [sp, #24]
    f2d4:	97fff793 	bl	d120 <code_543@plt>
    f2d8:	93407c00 	sxtw	x0, w0
    f2dc:	f9400fe1 	ldr	x1, [sp, #24]
    f2e0:	8b000020 	add	x0, x1, x0
    f2e4:	f9000fe0 	str	x0, [sp, #24]
    f2e8:	97ffefb2 	bl	b1b0 <code_1026@plt>
    f2ec:	93407c00 	sxtw	x0, w0
    f2f0:	f9400fe1 	ldr	x1, [sp, #24]
    f2f4:	8b000020 	add	x0, x1, x0
    f2f8:	f9000fe0 	str	x0, [sp, #24]
    f2fc:	97fff179 	bl	b8e0 <code_1105@plt>
    f300:	93407c00 	sxtw	x0, w0
    f304:	f9400fe1 	ldr	x1, [sp, #24]
    f308:	8b000020 	add	x0, x1, x0
    f30c:	f9000fe0 	str	x0, [sp, #24]
    f310:	97fff34c 	bl	c040 <code_983@plt>
    f314:	93407c00 	sxtw	x0, w0
    f318:	f9400fe1 	ldr	x1, [sp, #24]
    f31c:	8b000020 	add	x0, x1, x0
    f320:	f9000fe0 	str	x0, [sp, #24]
    f324:	97fff767 	bl	d0c0 <code_584@plt>
    f328:	93407c00 	sxtw	x0, w0
    f32c:	f9400fe1 	ldr	x1, [sp, #24]
    f330:	8b000020 	add	x0, x1, x0
    f334:	f9000fe0 	str	x0, [sp, #24]
    f338:	97fff0d2 	bl	b680 <code_661@plt>
    f33c:	93407c00 	sxtw	x0, w0
    f340:	f9400fe1 	ldr	x1, [sp, #24]
    f344:	8b000020 	add	x0, x1, x0
    f348:	f9000fe0 	str	x0, [sp, #24]
    f34c:	97fff545 	bl	c860 <code_1363@plt>
    f350:	93407c00 	sxtw	x0, w0
    f354:	f9400fe1 	ldr	x1, [sp, #24]
    f358:	8b000020 	add	x0, x1, x0
    f35c:	f9000fe0 	str	x0, [sp, #24]
    f360:	97fff100 	bl	b760 <code_291@plt>
    f364:	93407c00 	sxtw	x0, w0
    f368:	f9400fe1 	ldr	x1, [sp, #24]
    f36c:	8b000020 	add	x0, x1, x0
    f370:	f9000fe0 	str	x0, [sp, #24]
    f374:	97fff4ef 	bl	c730 <code_753@plt>
    f378:	93407c00 	sxtw	x0, w0
    f37c:	f9400fe1 	ldr	x1, [sp, #24]
    f380:	8b000020 	add	x0, x1, x0
    f384:	f9000fe0 	str	x0, [sp, #24]
    f388:	97fff4aa 	bl	c630 <code_1353@plt>
    f38c:	93407c00 	sxtw	x0, w0
    f390:	f9400fe1 	ldr	x1, [sp, #24]
    f394:	8b000020 	add	x0, x1, x0
    f398:	f9000fe0 	str	x0, [sp, #24]
    f39c:	97ffef01 	bl	afa0 <code_157@plt>
    f3a0:	93407c00 	sxtw	x0, w0
    f3a4:	f9400fe1 	ldr	x1, [sp, #24]
    f3a8:	8b000020 	add	x0, x1, x0
    f3ac:	f9000fe0 	str	x0, [sp, #24]
    f3b0:	97ffef2c 	bl	b060 <code_562@plt>
    f3b4:	93407c00 	sxtw	x0, w0
    f3b8:	f9400fe1 	ldr	x1, [sp, #24]
    f3bc:	8b000020 	add	x0, x1, x0
    f3c0:	f9000fe0 	str	x0, [sp, #24]
    f3c4:	97fff66f 	bl	cd80 <code_1269@plt>
    f3c8:	93407c00 	sxtw	x0, w0
    f3cc:	f9400fe1 	ldr	x1, [sp, #24]
    f3d0:	8b000020 	add	x0, x1, x0
    f3d4:	f9000fe0 	str	x0, [sp, #24]
    f3d8:	97fff51e 	bl	c850 <code_1@plt>
    f3dc:	93407c00 	sxtw	x0, w0
    f3e0:	f9400fe1 	ldr	x1, [sp, #24]
    f3e4:	8b000020 	add	x0, x1, x0
    f3e8:	f9000fe0 	str	x0, [sp, #24]
    f3ec:	97fff5fd 	bl	cbe0 <code_662@plt>
    f3f0:	93407c00 	sxtw	x0, w0
    f3f4:	f9400fe1 	ldr	x1, [sp, #24]
    f3f8:	8b000020 	add	x0, x1, x0
    f3fc:	f9000fe0 	str	x0, [sp, #24]
    f400:	97fff0d8 	bl	b760 <code_291@plt>
    f404:	93407c00 	sxtw	x0, w0
    f408:	f9400fe1 	ldr	x1, [sp, #24]
    f40c:	8b000020 	add	x0, x1, x0
    f410:	f9000fe0 	str	x0, [sp, #24]
    f414:	97fff2af 	bl	bed0 <code_842@plt>
    f418:	93407c00 	sxtw	x0, w0
    f41c:	f9400fe1 	ldr	x1, [sp, #24]
    f420:	8b000020 	add	x0, x1, x0
    f424:	f9000fe0 	str	x0, [sp, #24]
    f428:	97fff29a 	bl	be90 <code_1308@plt>
    f42c:	93407c00 	sxtw	x0, w0
    f430:	f9400fe1 	ldr	x1, [sp, #24]
    f434:	8b000020 	add	x0, x1, x0
    f438:	f9000fe0 	str	x0, [sp, #24]
    f43c:	97fff0b1 	bl	b700 <code_769@plt>
    f440:	93407c00 	sxtw	x0, w0
    f444:	f9400fe1 	ldr	x1, [sp, #24]
    f448:	8b000020 	add	x0, x1, x0
    f44c:	f9000fe0 	str	x0, [sp, #24]
    f450:	97fff498 	bl	c6b0 <code_262@plt>
    f454:	93407c00 	sxtw	x0, w0
    f458:	f9400fe1 	ldr	x1, [sp, #24]
    f45c:	8b000020 	add	x0, x1, x0
    f460:	f9000fe0 	str	x0, [sp, #24]
    f464:	97ffed43 	bl	a970 <code_473@plt>
    f468:	93407c00 	sxtw	x0, w0
    f46c:	f9400fe1 	ldr	x1, [sp, #24]
    f470:	8b000020 	add	x0, x1, x0
    f474:	f9000fe0 	str	x0, [sp, #24]
    f478:	97fff28a 	bl	bea0 <code_1133@plt>
    f47c:	93407c00 	sxtw	x0, w0
    f480:	f9400fe1 	ldr	x1, [sp, #24]
    f484:	8b000020 	add	x0, x1, x0
    f488:	f9000fe0 	str	x0, [sp, #24]
    f48c:	97fff225 	bl	bd20 <code_785@plt>
    f490:	93407c00 	sxtw	x0, w0
    f494:	f9400fe1 	ldr	x1, [sp, #24]
    f498:	8b000020 	add	x0, x1, x0
    f49c:	f9000fe0 	str	x0, [sp, #24]
    f4a0:	97fff0d8 	bl	b800 <code_1400@plt>
    f4a4:	93407c00 	sxtw	x0, w0
    f4a8:	f9400fe1 	ldr	x1, [sp, #24]
    f4ac:	8b000020 	add	x0, x1, x0
    f4b0:	f9000fe0 	str	x0, [sp, #24]
    f4b4:	97ffecab 	bl	a760 <code_1045@plt>
    f4b8:	93407c00 	sxtw	x0, w0
    f4bc:	f9400fe1 	ldr	x1, [sp, #24]
    f4c0:	8b000020 	add	x0, x1, x0
    f4c4:	f9000fe0 	str	x0, [sp, #24]
    f4c8:	97ffef5a 	bl	b230 <code_761@plt>
    f4cc:	93407c00 	sxtw	x0, w0
    f4d0:	f9400fe1 	ldr	x1, [sp, #24]
    f4d4:	8b000020 	add	x0, x1, x0
    f4d8:	f9000fe0 	str	x0, [sp, #24]
    f4dc:	97ffee01 	bl	ace0 <code_799@plt>
    f4e0:	93407c00 	sxtw	x0, w0
    f4e4:	f9400fe1 	ldr	x1, [sp, #24]
    f4e8:	8b000020 	add	x0, x1, x0
    f4ec:	f9000fe0 	str	x0, [sp, #24]
    f4f0:	97fff1d8 	bl	bc50 <code_657@plt>
    f4f4:	93407c00 	sxtw	x0, w0
    f4f8:	f9400fe1 	ldr	x1, [sp, #24]
    f4fc:	8b000020 	add	x0, x1, x0
    f500:	f9000fe0 	str	x0, [sp, #24]
    f504:	97fff563 	bl	ca90 <code_574@plt>
    f508:	93407c00 	sxtw	x0, w0
    f50c:	f9400fe1 	ldr	x1, [sp, #24]
    f510:	8b000020 	add	x0, x1, x0
    f514:	f9000fe0 	str	x0, [sp, #24]
    f518:	97fff202 	bl	bd20 <code_785@plt>
    f51c:	93407c00 	sxtw	x0, w0
    f520:	f9400fe1 	ldr	x1, [sp, #24]
    f524:	8b000020 	add	x0, x1, x0
    f528:	f9000fe0 	str	x0, [sp, #24]
    f52c:	97ffee01 	bl	ad30 <code_26@plt>
    f530:	93407c00 	sxtw	x0, w0
    f534:	f9400fe1 	ldr	x1, [sp, #24]
    f538:	8b000020 	add	x0, x1, x0
    f53c:	f9000fe0 	str	x0, [sp, #24]
    f540:	97fff15c 	bl	bab0 <code_489@plt>
    f544:	93407c00 	sxtw	x0, w0
    f548:	f9400fe1 	ldr	x1, [sp, #24]
    f54c:	8b000020 	add	x0, x1, x0
    f550:	f9000fe0 	str	x0, [sp, #24]
    f554:	97ffeec3 	bl	b060 <code_562@plt>
    f558:	93407c00 	sxtw	x0, w0
    f55c:	f9400fe1 	ldr	x1, [sp, #24]
    f560:	8b000020 	add	x0, x1, x0
    f564:	f9000fe0 	str	x0, [sp, #24]
    f568:	97fff41e 	bl	c5e0 <code_1351@plt>
    f56c:	93407c00 	sxtw	x0, w0
    f570:	f9400fe1 	ldr	x1, [sp, #24]
    f574:	8b000020 	add	x0, x1, x0
    f578:	f9000fe0 	str	x0, [sp, #24]
    f57c:	97fff051 	bl	b6c0 <code_1266@plt>
    f580:	93407c00 	sxtw	x0, w0
    f584:	f9400fe1 	ldr	x1, [sp, #24]
    f588:	8b000020 	add	x0, x1, x0
    f58c:	f9000fe0 	str	x0, [sp, #24]
    f590:	97fff384 	bl	c3a0 <code_822@plt>
    f594:	93407c00 	sxtw	x0, w0
    f598:	f9400fe1 	ldr	x1, [sp, #24]
    f59c:	8b000020 	add	x0, x1, x0
    f5a0:	f9000fe0 	str	x0, [sp, #24]
    f5a4:	97ffef6f 	bl	b360 <code_2@plt>
    f5a8:	93407c00 	sxtw	x0, w0
    f5ac:	f9400fe1 	ldr	x1, [sp, #24]
    f5b0:	8b000020 	add	x0, x1, x0
    f5b4:	f9000fe0 	str	x0, [sp, #24]
    f5b8:	97fff5aa 	bl	cc60 <code_531@plt>
    f5bc:	93407c00 	sxtw	x0, w0
    f5c0:	f9400fe1 	ldr	x1, [sp, #24]
    f5c4:	8b000020 	add	x0, x1, x0
    f5c8:	f9000fe0 	str	x0, [sp, #24]
    f5cc:	97fff309 	bl	c1f0 <code_235@plt>
    f5d0:	93407c00 	sxtw	x0, w0
    f5d4:	f9400fe1 	ldr	x1, [sp, #24]
    f5d8:	8b000020 	add	x0, x1, x0
    f5dc:	f9000fe0 	str	x0, [sp, #24]
    f5e0:	97fff538 	bl	cac0 <code_572@plt>
    f5e4:	93407c00 	sxtw	x0, w0
    f5e8:	f9400fe1 	ldr	x1, [sp, #24]
    f5ec:	8b000020 	add	x0, x1, x0
    f5f0:	f9000fe0 	str	x0, [sp, #24]
    f5f4:	97ffeeb3 	bl	b0c0 <code_676@plt>
    f5f8:	93407c00 	sxtw	x0, w0
    f5fc:	f9400fe1 	ldr	x1, [sp, #24]
    f600:	8b000020 	add	x0, x1, x0
    f604:	f9000fe0 	str	x0, [sp, #24]
    f608:	97fff622 	bl	ce90 <code_1106@plt>
    f60c:	93407c00 	sxtw	x0, w0
    f610:	f9400fe1 	ldr	x1, [sp, #24]
    f614:	8b000020 	add	x0, x1, x0
    f618:	f9000fe0 	str	x0, [sp, #24]
    f61c:	97ffeea9 	bl	b0c0 <code_676@plt>
    f620:	93407c00 	sxtw	x0, w0
    f624:	f9400fe1 	ldr	x1, [sp, #24]
    f628:	8b000020 	add	x0, x1, x0
    f62c:	f9000fe0 	str	x0, [sp, #24]
    f630:	97fff518 	bl	ca90 <code_574@plt>
    f634:	93407c00 	sxtw	x0, w0
    f638:	f9400fe1 	ldr	x1, [sp, #24]
    f63c:	8b000020 	add	x0, x1, x0
    f640:	f9000fe0 	str	x0, [sp, #24]
    f644:	97fff013 	bl	b690 <code_1304@plt>
    f648:	93407c00 	sxtw	x0, w0
    f64c:	f9400fe1 	ldr	x1, [sp, #24]
    f650:	8b000020 	add	x0, x1, x0
    f654:	f9000fe0 	str	x0, [sp, #24]
    f658:	97ffec86 	bl	a870 <code_847@plt>
    f65c:	93407c00 	sxtw	x0, w0
    f660:	f9400fe1 	ldr	x1, [sp, #24]
    f664:	8b000020 	add	x0, x1, x0
    f668:	f9000fe0 	str	x0, [sp, #24]
    f66c:	97fff479 	bl	c850 <code_1@plt>
    f670:	93407c00 	sxtw	x0, w0
    f674:	f9400fe1 	ldr	x1, [sp, #24]
    f678:	8b000020 	add	x0, x1, x0
    f67c:	f9000fe0 	str	x0, [sp, #24]
    f680:	97fff3f0 	bl	c640 <code_569@plt>
    f684:	93407c00 	sxtw	x0, w0
    f688:	f9400fe1 	ldr	x1, [sp, #24]
    f68c:	8b000020 	add	x0, x1, x0
    f690:	f9000fe0 	str	x0, [sp, #24]
    f694:	97fff15f 	bl	bc10 <code_659@plt>
    f698:	93407c00 	sxtw	x0, w0
    f69c:	f9400fe1 	ldr	x1, [sp, #24]
    f6a0:	8b000020 	add	x0, x1, x0
    f6a4:	f9000fe0 	str	x0, [sp, #24]
    f6a8:	97fff51a 	bl	cb10 <code_71@plt>
    f6ac:	93407c00 	sxtw	x0, w0
    f6b0:	f9400fe1 	ldr	x1, [sp, #24]
    f6b4:	8b000020 	add	x0, x1, x0
    f6b8:	f9000fe0 	str	x0, [sp, #24]
    f6bc:	97ffed9d 	bl	ad30 <code_26@plt>
    f6c0:	93407c00 	sxtw	x0, w0
    f6c4:	f9400fe1 	ldr	x1, [sp, #24]
    f6c8:	8b000020 	add	x0, x1, x0
    f6cc:	f9000fe0 	str	x0, [sp, #24]
    f6d0:	97fff424 	bl	c760 <code_1023@plt>
    f6d4:	93407c00 	sxtw	x0, w0
    f6d8:	f9400fe1 	ldr	x1, [sp, #24]
    f6dc:	8b000020 	add	x0, x1, x0
    f6e0:	f9000fe0 	str	x0, [sp, #24]
    f6e4:	97fff4b7 	bl	c9c0 <code_963@plt>
    f6e8:	93407c00 	sxtw	x0, w0
    f6ec:	f9400fe1 	ldr	x1, [sp, #24]
    f6f0:	8b000020 	add	x0, x1, x0
    f6f4:	f9000fe0 	str	x0, [sp, #24]
    f6f8:	97fff18a 	bl	bd20 <code_785@plt>
    f6fc:	93407c00 	sxtw	x0, w0
    f700:	f9400fe1 	ldr	x1, [sp, #24]
    f704:	8b000020 	add	x0, x1, x0
    f708:	f9000fe0 	str	x0, [sp, #24]
    f70c:	97ffeca1 	bl	a990 <code_304@plt>
    f710:	93407c00 	sxtw	x0, w0
    f714:	f9400fe1 	ldr	x1, [sp, #24]
    f718:	8b000020 	add	x0, x1, x0
    f71c:	f9000fe0 	str	x0, [sp, #24]
    f720:	97fff2f8 	bl	c300 <code_1185@plt>
    f724:	93407c00 	sxtw	x0, w0
    f728:	f9400fe1 	ldr	x1, [sp, #24]
    f72c:	8b000020 	add	x0, x1, x0
    f730:	f9000fe0 	str	x0, [sp, #24]
    f734:	97fff32f 	bl	c3f0 <code_1085@plt>
    f738:	93407c00 	sxtw	x0, w0
    f73c:	f9400fe1 	ldr	x1, [sp, #24]
    f740:	8b000020 	add	x0, x1, x0
    f744:	f9000fe0 	str	x0, [sp, #24]
    f748:	97fff066 	bl	b8e0 <code_1105@plt>
    f74c:	93407c00 	sxtw	x0, w0
    f750:	f9400fe1 	ldr	x1, [sp, #24]
    f754:	8b000020 	add	x0, x1, x0
    f758:	f9000fe0 	str	x0, [sp, #24]
    f75c:	97ffee15 	bl	afb0 <code_568@plt>
    f760:	93407c00 	sxtw	x0, w0
    f764:	f9400fe1 	ldr	x1, [sp, #24]
    f768:	8b000020 	add	x0, x1, x0
    f76c:	f9000fe0 	str	x0, [sp, #24]
    f770:	97fff000 	bl	b770 <code_1268@plt>
    f774:	93407c00 	sxtw	x0, w0
    f778:	f9400fe1 	ldr	x1, [sp, #24]
    f77c:	8b000020 	add	x0, x1, x0
    f780:	f9000fe0 	str	x0, [sp, #24]
    f784:	97fff64f 	bl	d0c0 <code_584@plt>
    f788:	93407c00 	sxtw	x0, w0
    f78c:	f9400fe1 	ldr	x1, [sp, #24]
    f790:	8b000020 	add	x0, x1, x0
    f794:	f9000fe0 	str	x0, [sp, #24]
    f798:	97ffee06 	bl	afb0 <code_568@plt>
    f79c:	93407c00 	sxtw	x0, w0
    f7a0:	f9400fe1 	ldr	x1, [sp, #24]
    f7a4:	8b000020 	add	x0, x1, x0
    f7a8:	f9000fe0 	str	x0, [sp, #24]
    f7ac:	97ffeba5 	bl	a640 <code_641@plt>
    f7b0:	93407c00 	sxtw	x0, w0
    f7b4:	f9400fe1 	ldr	x1, [sp, #24]
    f7b8:	8b000020 	add	x0, x1, x0
    f7bc:	f9000fe0 	str	x0, [sp, #24]
    f7c0:	97ffed20 	bl	ac40 <code_238@plt>
    f7c4:	93407c00 	sxtw	x0, w0
    f7c8:	f9400fe1 	ldr	x1, [sp, #24]
    f7cc:	8b000020 	add	x0, x1, x0
    f7d0:	f9000fe0 	str	x0, [sp, #24]
    f7d4:	97fff58b 	bl	ce00 <code_800@plt>
    f7d8:	93407c00 	sxtw	x0, w0
    f7dc:	f9400fe1 	ldr	x1, [sp, #24]
    f7e0:	8b000020 	add	x0, x1, x0
    f7e4:	f9000fe0 	str	x0, [sp, #24]
    f7e8:	97fff466 	bl	c980 <code_1059@plt>
    f7ec:	93407c00 	sxtw	x0, w0
    f7f0:	f9400fe1 	ldr	x1, [sp, #24]
    f7f4:	8b000020 	add	x0, x1, x0
    f7f8:	f9000fe0 	str	x0, [sp, #24]
    f7fc:	97fff33d 	bl	c4f0 <code_1120@plt>
    f800:	93407c00 	sxtw	x0, w0
    f804:	f9400fe1 	ldr	x1, [sp, #24]
    f808:	8b000020 	add	x0, x1, x0
    f80c:	f9000fe0 	str	x0, [sp, #24]
    f810:	97fff1cc 	bl	bf40 <code_470@plt>
    f814:	93407c00 	sxtw	x0, w0
    f818:	f9400fe1 	ldr	x1, [sp, #24]
    f81c:	8b000020 	add	x0, x1, x0
    f820:	f9000fe0 	str	x0, [sp, #24]
    f824:	97fff103 	bl	bc30 <code_642@plt>
    f828:	93407c00 	sxtw	x0, w0
    f82c:	f9400fe1 	ldr	x1, [sp, #24]
    f830:	8b000020 	add	x0, x1, x0
    f834:	f9000fe0 	str	x0, [sp, #24]
    f838:	97fff4e6 	bl	cbd0 <code_1128@plt>
    f83c:	93407c00 	sxtw	x0, w0
    f840:	f9400fe1 	ldr	x1, [sp, #24]
    f844:	8b000020 	add	x0, x1, x0
    f848:	f9000fe0 	str	x0, [sp, #24]
    f84c:	97ffec79 	bl	aa30 <code_1215@plt>
    f850:	93407c00 	sxtw	x0, w0
    f854:	f9400fe1 	ldr	x1, [sp, #24]
    f858:	8b000020 	add	x0, x1, x0
    f85c:	f9000fe0 	str	x0, [sp, #24]
    f860:	97ffebf4 	bl	a830 <code_200@plt>
    f864:	93407c00 	sxtw	x0, w0
    f868:	f9400fe1 	ldr	x1, [sp, #24]
    f86c:	8b000020 	add	x0, x1, x0
    f870:	f9000fe0 	str	x0, [sp, #24]
    f874:	97fff613 	bl	d0c0 <code_584@plt>
    f878:	93407c00 	sxtw	x0, w0
    f87c:	f9400fe1 	ldr	x1, [sp, #24]
    f880:	8b000020 	add	x0, x1, x0
    f884:	f9000fe0 	str	x0, [sp, #24]
    f888:	97fff12a 	bl	bd30 <code_505@plt>
    f88c:	93407c00 	sxtw	x0, w0
    f890:	f9400fe1 	ldr	x1, [sp, #24]
    f894:	8b000020 	add	x0, x1, x0
    f898:	f9000fe0 	str	x0, [sp, #24]
    f89c:	97ffeef5 	bl	b470 <code_451@plt>
    f8a0:	93407c00 	sxtw	x0, w0
    f8a4:	f9400fe1 	ldr	x1, [sp, #24]
    f8a8:	8b000020 	add	x0, x1, x0
    f8ac:	f9000fe0 	str	x0, [sp, #24]
    f8b0:	97ffef20 	bl	b530 <code_1468@plt>
    f8b4:	93407c00 	sxtw	x0, w0
    f8b8:	f9400fe1 	ldr	x1, [sp, #24]
    f8bc:	8b000020 	add	x0, x1, x0
    f8c0:	f9000fe0 	str	x0, [sp, #24]
    f8c4:	97fff1fb 	bl	c0b0 <code_590@plt>
    f8c8:	93407c00 	sxtw	x0, w0
    f8cc:	f9400fe1 	ldr	x1, [sp, #24]
    f8d0:	8b000020 	add	x0, x1, x0
    f8d4:	f9000fe0 	str	x0, [sp, #24]
    f8d8:	97fff3be 	bl	c7d0 <code_360@plt>
    f8dc:	93407c00 	sxtw	x0, w0
    f8e0:	f9400fe1 	ldr	x1, [sp, #24]
    f8e4:	8b000020 	add	x0, x1, x0
    f8e8:	f9000fe0 	str	x0, [sp, #24]
    f8ec:	97fff425 	bl	c980 <code_1059@plt>
    f8f0:	93407c00 	sxtw	x0, w0
    f8f4:	f9400fe1 	ldr	x1, [sp, #24]
    f8f8:	8b000020 	add	x0, x1, x0
    f8fc:	f9000fe0 	str	x0, [sp, #24]
    f900:	97fff270 	bl	c2c0 <code_25@plt>
    f904:	93407c00 	sxtw	x0, w0
    f908:	f9400fe1 	ldr	x1, [sp, #24]
    f90c:	8b000020 	add	x0, x1, x0
    f910:	f9000fe0 	str	x0, [sp, #24]
    f914:	97fff5cb 	bl	d040 <code_1182@plt>
    f918:	93407c00 	sxtw	x0, w0
    f91c:	f9400fe1 	ldr	x1, [sp, #24]
    f920:	8b000020 	add	x0, x1, x0
    f924:	f9000fe0 	str	x0, [sp, #24]
    f928:	97fff17a 	bl	bf10 <code_1380@plt>
    f92c:	93407c00 	sxtw	x0, w0
    f930:	f9400fe1 	ldr	x1, [sp, #24]
    f934:	8b000020 	add	x0, x1, x0
    f938:	f9000fe0 	str	x0, [sp, #24]
    f93c:	97fff49d 	bl	cbb0 <code_699@plt>
    f940:	93407c00 	sxtw	x0, w0
    f944:	f9400fe1 	ldr	x1, [sp, #24]
    f948:	8b000020 	add	x0, x1, x0
    f94c:	f9000fe0 	str	x0, [sp, #24]
    f950:	97fff55c 	bl	cec0 <code_1280@plt>
    f954:	93407c00 	sxtw	x0, w0
    f958:	f9400fe1 	ldr	x1, [sp, #24]
    f95c:	8b000020 	add	x0, x1, x0
    f960:	f9000fe0 	str	x0, [sp, #24]
    f964:	97fff41b 	bl	c9d0 <code_1469@plt>
    f968:	93407c00 	sxtw	x0, w0
    f96c:	f9400fe1 	ldr	x1, [sp, #24]
    f970:	8b000020 	add	x0, x1, x0
    f974:	f9000fe0 	str	x0, [sp, #24]
    f978:	97fff2a6 	bl	c410 <code_469@plt>
    f97c:	93407c00 	sxtw	x0, w0
    f980:	f9400fe1 	ldr	x1, [sp, #24]
    f984:	8b000020 	add	x0, x1, x0
    f988:	f9000fe0 	str	x0, [sp, #24]
    f98c:	97fff0d5 	bl	bce0 <code_244@plt>
    f990:	93407c00 	sxtw	x0, w0
    f994:	f9400fe1 	ldr	x1, [sp, #24]
    f998:	8b000020 	add	x0, x1, x0
    f99c:	f9000fe0 	str	x0, [sp, #24]
    f9a0:	97fff5b4 	bl	d070 <code_977@plt>
    f9a4:	93407c00 	sxtw	x0, w0
    f9a8:	f9400fe1 	ldr	x1, [sp, #24]
    f9ac:	8b000020 	add	x0, x1, x0
    f9b0:	f9000fe0 	str	x0, [sp, #24]
    f9b4:	97ffef57 	bl	b710 <code_776@plt>
    f9b8:	93407c00 	sxtw	x0, w0
    f9bc:	f9400fe1 	ldr	x1, [sp, #24]
    f9c0:	8b000020 	add	x0, x1, x0
    f9c4:	f9000fe0 	str	x0, [sp, #24]
    f9c8:	97fff0b2 	bl	bc90 <code_285@plt>
    f9cc:	93407c00 	sxtw	x0, w0
    f9d0:	f9400fe1 	ldr	x1, [sp, #24]
    f9d4:	8b000020 	add	x0, x1, x0
    f9d8:	f9000fe0 	str	x0, [sp, #24]
    f9dc:	97ffeec1 	bl	b4e0 <code_498@plt>
    f9e0:	93407c00 	sxtw	x0, w0
    f9e4:	f9400fe1 	ldr	x1, [sp, #24]
    f9e8:	8b000020 	add	x0, x1, x0
    f9ec:	f9000fe0 	str	x0, [sp, #24]
    f9f0:	97fff120 	bl	be70 <code_1137@plt>
    f9f4:	93407c00 	sxtw	x0, w0
    f9f8:	f9400fe1 	ldr	x1, [sp, #24]
    f9fc:	8b000020 	add	x0, x1, x0
    fa00:	f9000fe0 	str	x0, [sp, #24]
    fa04:	97fff17f 	bl	c000 <code_995@plt>
    fa08:	93407c00 	sxtw	x0, w0
    fa0c:	f9400fe1 	ldr	x1, [sp, #24]
    fa10:	8b000020 	add	x0, x1, x0
    fa14:	f9000fe0 	str	x0, [sp, #24]
    fa18:	97fff186 	bl	c030 <code_1253@plt>
    fa1c:	93407c00 	sxtw	x0, w0
    fa20:	f9400fe1 	ldr	x1, [sp, #24]
    fa24:	8b000020 	add	x0, x1, x0
    fa28:	f9000fe0 	str	x0, [sp, #24]
    fa2c:	97ffec99 	bl	ac90 <code_234@plt>
    fa30:	93407c00 	sxtw	x0, w0
    fa34:	f9400fe1 	ldr	x1, [sp, #24]
    fa38:	8b000020 	add	x0, x1, x0
    fa3c:	f9000fe0 	str	x0, [sp, #24]
    fa40:	97ffef18 	bl	b6a0 <code_299@plt>
    fa44:	93407c00 	sxtw	x0, w0
    fa48:	f9400fe1 	ldr	x1, [sp, #24]
    fa4c:	8b000020 	add	x0, x1, x0
    fa50:	f9000fe0 	str	x0, [sp, #24]
    fa54:	97fff103 	bl	be60 <code_1345@plt>
    fa58:	93407c00 	sxtw	x0, w0
    fa5c:	f9400fe1 	ldr	x1, [sp, #24]
    fa60:	8b000020 	add	x0, x1, x0
    fa64:	f9000fe0 	str	x0, [sp, #24]
    fa68:	97ffec5a 	bl	abd0 <code_145@plt>
    fa6c:	93407c00 	sxtw	x0, w0
    fa70:	f9400fe1 	ldr	x1, [sp, #24]
    fa74:	8b000020 	add	x0, x1, x0
    fa78:	f9000fe0 	str	x0, [sp, #24]
    fa7c:	97fff3c5 	bl	c990 <code_1426@plt>
    fa80:	93407c00 	sxtw	x0, w0
    fa84:	f9400fe1 	ldr	x1, [sp, #24]
    fa88:	8b000020 	add	x0, x1, x0
    fa8c:	f9000fe0 	str	x0, [sp, #24]
    fa90:	97ffec5c 	bl	ac00 <code_149@plt>
    fa94:	93407c00 	sxtw	x0, w0
    fa98:	f9400fe1 	ldr	x1, [sp, #24]
    fa9c:	8b000020 	add	x0, x1, x0
    faa0:	f9000fe0 	str	x0, [sp, #24]
    faa4:	97ffed43 	bl	afb0 <code_568@plt>
    faa8:	93407c00 	sxtw	x0, w0
    faac:	f9400fe1 	ldr	x1, [sp, #24]
    fab0:	8b000020 	add	x0, x1, x0
    fab4:	f9000fe0 	str	x0, [sp, #24]
    fab8:	97ffecb2 	bl	ad80 <code_1013@plt>
    fabc:	93407c00 	sxtw	x0, w0
    fac0:	f9400fe1 	ldr	x1, [sp, #24]
    fac4:	8b000020 	add	x0, x1, x0
    fac8:	f9000fe0 	str	x0, [sp, #24]
    facc:	97ffec41 	bl	abd0 <code_145@plt>
    fad0:	93407c00 	sxtw	x0, w0
    fad4:	f9400fe1 	ldr	x1, [sp, #24]
    fad8:	8b000020 	add	x0, x1, x0
    fadc:	f9000fe0 	str	x0, [sp, #24]
    fae0:	97fff224 	bl	c370 <code_1333@plt>
    fae4:	93407c00 	sxtw	x0, w0
    fae8:	f9400fe1 	ldr	x1, [sp, #24]
    faec:	8b000020 	add	x0, x1, x0
    faf0:	f9000fe0 	str	x0, [sp, #24]
    faf4:	97fff007 	bl	bb10 <code_1475@plt>
    faf8:	93407c00 	sxtw	x0, w0
    fafc:	f9400fe1 	ldr	x1, [sp, #24]
    fb00:	8b000020 	add	x0, x1, x0
    fb04:	f9000fe0 	str	x0, [sp, #24]
    fb08:	97ffeda2 	bl	b190 <code_758@plt>
    fb0c:	93407c00 	sxtw	x0, w0
    fb10:	f9400fe1 	ldr	x1, [sp, #24]
    fb14:	8b000020 	add	x0, x1, x0
    fb18:	f9000fe0 	str	x0, [sp, #24]
    fb1c:	97ffeb15 	bl	a770 <code_1235@plt>
    fb20:	93407c00 	sxtw	x0, w0
    fb24:	f9400fe1 	ldr	x1, [sp, #24]
    fb28:	8b000020 	add	x0, x1, x0
    fb2c:	f9000fe0 	str	x0, [sp, #24]
    fb30:	97ffecf4 	bl	af00 <code_1377@plt>
    fb34:	93407c00 	sxtw	x0, w0
    fb38:	f9400fe1 	ldr	x1, [sp, #24]
    fb3c:	8b000020 	add	x0, x1, x0
    fb40:	f9000fe0 	str	x0, [sp, #24]
    fb44:	97fff307 	bl	c760 <code_1023@plt>
    fb48:	93407c00 	sxtw	x0, w0
    fb4c:	f9400fe1 	ldr	x1, [sp, #24]
    fb50:	8b000020 	add	x0, x1, x0
    fb54:	f9000fe0 	str	x0, [sp, #24]
    fb58:	97fff51e 	bl	cfd0 <code_936@plt>
    fb5c:	93407c00 	sxtw	x0, w0
    fb60:	f9400fe1 	ldr	x1, [sp, #24]
    fb64:	8b000020 	add	x0, x1, x0
    fb68:	f9000fe0 	str	x0, [sp, #24]
    fb6c:	97ffec49 	bl	ac90 <code_234@plt>
    fb70:	93407c00 	sxtw	x0, w0
    fb74:	f9400fe1 	ldr	x1, [sp, #24]
    fb78:	8b000020 	add	x0, x1, x0
    fb7c:	f9000fe0 	str	x0, [sp, #24]
    fb80:	97fff270 	bl	c540 <code_1419@plt>
    fb84:	93407c00 	sxtw	x0, w0
    fb88:	f9400fe1 	ldr	x1, [sp, #24]
    fb8c:	8b000020 	add	x0, x1, x0
    fb90:	f9000fe0 	str	x0, [sp, #24]
    fb94:	97fff267 	bl	c530 <code_1454@plt>
    fb98:	93407c00 	sxtw	x0, w0
    fb9c:	f9400fe1 	ldr	x1, [sp, #24]
    fba0:	8b000020 	add	x0, x1, x0
    fba4:	f9000fe0 	str	x0, [sp, #24]
    fba8:	97ffed86 	bl	b1c0 <code_523@plt>
    fbac:	93407c00 	sxtw	x0, w0
    fbb0:	f9400fe1 	ldr	x1, [sp, #24]
    fbb4:	8b000020 	add	x0, x1, x0
    fbb8:	f9000fe0 	str	x0, [sp, #24]
    fbbc:	97ffec95 	bl	ae10 <code_22@plt>
    fbc0:	93407c00 	sxtw	x0, w0
    fbc4:	f9400fe1 	ldr	x1, [sp, #24]
    fbc8:	8b000020 	add	x0, x1, x0
    fbcc:	f9000fe0 	str	x0, [sp, #24]
    fbd0:	97ffed78 	bl	b1b0 <code_1026@plt>
    fbd4:	93407c00 	sxtw	x0, w0
    fbd8:	f9400fe1 	ldr	x1, [sp, #24]
    fbdc:	8b000020 	add	x0, x1, x0
    fbe0:	f9000fe0 	str	x0, [sp, #24]
    fbe4:	97fff17b 	bl	c1d0 <code_1283@plt>
    fbe8:	93407c00 	sxtw	x0, w0
    fbec:	f9400fe1 	ldr	x1, [sp, #24]
    fbf0:	8b000020 	add	x0, x1, x0
    fbf4:	f9000fe0 	str	x0, [sp, #24]
    fbf8:	97ffede6 	bl	b390 <code_33@plt>
    fbfc:	93407c00 	sxtw	x0, w0
    fc00:	f9400fe1 	ldr	x1, [sp, #24]
    fc04:	8b000020 	add	x0, x1, x0
    fc08:	f9000fe0 	str	x0, [sp, #24]
    fc0c:	97fff1a9 	bl	c2b0 <code_1287@plt>
    fc10:	93407c00 	sxtw	x0, w0
    fc14:	f9400fe1 	ldr	x1, [sp, #24]
    fc18:	8b000020 	add	x0, x1, x0
    fc1c:	f9000fe0 	str	x0, [sp, #24]
    fc20:	97fff1b4 	bl	c2f0 <code_1016@plt>
    fc24:	93407c00 	sxtw	x0, w0
    fc28:	f9400fe1 	ldr	x1, [sp, #24]
    fc2c:	8b000020 	add	x0, x1, x0
    fc30:	f9000fe0 	str	x0, [sp, #24]
    fc34:	97ffefd7 	bl	bb90 <code_509@plt>
    fc38:	93407c00 	sxtw	x0, w0
    fc3c:	f9400fe1 	ldr	x1, [sp, #24]
    fc40:	8b000020 	add	x0, x1, x0
    fc44:	f9000fe0 	str	x0, [sp, #24]
    fc48:	97ffec3a 	bl	ad30 <code_26@plt>
    fc4c:	93407c00 	sxtw	x0, w0
    fc50:	f9400fe1 	ldr	x1, [sp, #24]
    fc54:	8b000020 	add	x0, x1, x0
    fc58:	f9000fe0 	str	x0, [sp, #24]
    fc5c:	97ffec49 	bl	ad80 <code_1013@plt>
    fc60:	93407c00 	sxtw	x0, w0
    fc64:	f9400fe1 	ldr	x1, [sp, #24]
    fc68:	8b000020 	add	x0, x1, x0
    fc6c:	f9000fe0 	str	x0, [sp, #24]
    fc70:	97ffeee4 	bl	b800 <code_1400@plt>
    fc74:	93407c00 	sxtw	x0, w0
    fc78:	f9400fe1 	ldr	x1, [sp, #24]
    fc7c:	8b000020 	add	x0, x1, x0
    fc80:	f9000fe0 	str	x0, [sp, #24]
    fc84:	97fff43f 	bl	cd80 <code_1269@plt>
    fc88:	93407c00 	sxtw	x0, w0
    fc8c:	f9400fe1 	ldr	x1, [sp, #24]
    fc90:	8b000020 	add	x0, x1, x0
    fc94:	f9000fe0 	str	x0, [sp, #24]
    fc98:	97fff3fe 	bl	cc90 <code_779@plt>
    fc9c:	93407c00 	sxtw	x0, w0
    fca0:	f9400fe1 	ldr	x1, [sp, #24]
    fca4:	8b000020 	add	x0, x1, x0
    fca8:	f9000fe0 	str	x0, [sp, #24]
    fcac:	97fff309 	bl	c8d0 <code_1365@plt>
    fcb0:	93407c00 	sxtw	x0, w0
    fcb4:	f9400fe1 	ldr	x1, [sp, #24]
    fcb8:	8b000020 	add	x0, x1, x0
    fcbc:	f9000fe0 	str	x0, [sp, #24]
    fcc0:	97fff24c 	bl	c5f0 <code_621@plt>
    fcc4:	93407c00 	sxtw	x0, w0
    fcc8:	f9400fe1 	ldr	x1, [sp, #24]
    fccc:	8b000020 	add	x0, x1, x0
    fcd0:	f9000fe0 	str	x0, [sp, #24]
    fcd4:	97fff44b 	bl	ce00 <code_800@plt>
    fcd8:	93407c00 	sxtw	x0, w0
    fcdc:	f9400fe1 	ldr	x1, [sp, #24]
    fce0:	8b000020 	add	x0, x1, x0
    fce4:	f9000fe0 	str	x0, [sp, #24]
    fce8:	97fff47a 	bl	ced0 <code_893@plt>
    fcec:	93407c00 	sxtw	x0, w0
    fcf0:	f9400fe1 	ldr	x1, [sp, #24]
    fcf4:	8b000020 	add	x0, x1, x0
    fcf8:	f9000fe0 	str	x0, [sp, #24]
    fcfc:	97ffed6d 	bl	b2b0 <code_829@plt>
    fd00:	93407c00 	sxtw	x0, w0
    fd04:	f9400fe1 	ldr	x1, [sp, #24]
    fd08:	8b000020 	add	x0, x1, x0
    fd0c:	f9000fe0 	str	x0, [sp, #24]
    fd10:	97fff460 	bl	ce90 <code_1106@plt>
    fd14:	93407c00 	sxtw	x0, w0
    fd18:	f9400fe1 	ldr	x1, [sp, #24]
    fd1c:	8b000020 	add	x0, x1, x0
    fd20:	f9000fe0 	str	x0, [sp, #24]
    fd24:	97fff3d7 	bl	cc80 <code_729@plt>
    fd28:	93407c00 	sxtw	x0, w0
    fd2c:	f9400fe1 	ldr	x1, [sp, #24]
    fd30:	8b000020 	add	x0, x1, x0
    fd34:	f9000fe0 	str	x0, [sp, #24]
    fd38:	97ffee06 	bl	b550 <code_960@plt>
    fd3c:	93407c00 	sxtw	x0, w0
    fd40:	f9400fe1 	ldr	x1, [sp, #24]
    fd44:	8b000020 	add	x0, x1, x0
    fd48:	f9000fe0 	str	x0, [sp, #24]
    fd4c:	97ffef11 	bl	b990 <code_448@plt>
    fd50:	93407c00 	sxtw	x0, w0
    fd54:	f9400fe1 	ldr	x1, [sp, #24]
    fd58:	8b000020 	add	x0, x1, x0
    fd5c:	f9000fe0 	str	x0, [sp, #24]
    fd60:	97fff0cc 	bl	c090 <code_142@plt>
    fd64:	93407c00 	sxtw	x0, w0
    fd68:	f9400fe1 	ldr	x1, [sp, #24]
    fd6c:	8b000020 	add	x0, x1, x0
    fd70:	f9000fe0 	str	x0, [sp, #24]
    fd74:	97fff047 	bl	be90 <code_1308@plt>
    fd78:	93407c00 	sxtw	x0, w0
    fd7c:	f9400fe1 	ldr	x1, [sp, #24]
    fd80:	8b000020 	add	x0, x1, x0
    fd84:	f9000fe0 	str	x0, [sp, #24]
    fd88:	97fff1ce 	bl	c4c0 <code_954@plt>
    fd8c:	93407c00 	sxtw	x0, w0
    fd90:	f9400fe1 	ldr	x1, [sp, #24]
    fd94:	8b000020 	add	x0, x1, x0
    fd98:	f9000fe0 	str	x0, [sp, #24]
    fd9c:	97fff3c9 	bl	ccc0 <code_1032@plt>
    fda0:	93407c00 	sxtw	x0, w0
    fda4:	f9400fe1 	ldr	x1, [sp, #24]
    fda8:	8b000020 	add	x0, x1, x0
    fdac:	f9000fe0 	str	x0, [sp, #24]
    fdb0:	97fff2f4 	bl	c980 <code_1059@plt>
    fdb4:	93407c00 	sxtw	x0, w0
    fdb8:	f9400fe1 	ldr	x1, [sp, #24]
    fdbc:	8b000020 	add	x0, x1, x0
    fdc0:	f9000fe0 	str	x0, [sp, #24]
    fdc4:	97fff28b 	bl	c7f0 <code_897@plt>
    fdc8:	93407c00 	sxtw	x0, w0
    fdcc:	f9400fe1 	ldr	x1, [sp, #24]
    fdd0:	8b000020 	add	x0, x1, x0
    fdd4:	f9000fe0 	str	x0, [sp, #24]
    fdd8:	97ffec6e 	bl	af90 <code_990@plt>
    fddc:	93407c00 	sxtw	x0, w0
    fde0:	f9400fe1 	ldr	x1, [sp, #24]
    fde4:	8b000020 	add	x0, x1, x0
    fde8:	f9000fe0 	str	x0, [sp, #24]
    fdec:	97fff4b5 	bl	d0c0 <code_584@plt>
    fdf0:	93407c00 	sxtw	x0, w0
    fdf4:	f9400fe1 	ldr	x1, [sp, #24]
    fdf8:	8b000020 	add	x0, x1, x0
    fdfc:	f9000fe0 	str	x0, [sp, #24]
    fe00:	97ffed8c 	bl	b430 <code_1095@plt>
    fe04:	93407c00 	sxtw	x0, w0
    fe08:	f9400fe1 	ldr	x1, [sp, #24]
    fe0c:	8b000020 	add	x0, x1, x0
    fe10:	f9000fe0 	str	x0, [sp, #24]
    fe14:	97fff43b 	bl	cf00 <code_1394@plt>
    fe18:	93407c00 	sxtw	x0, w0
    fe1c:	f9400fe1 	ldr	x1, [sp, #24]
    fe20:	8b000020 	add	x0, x1, x0
    fe24:	f9000fe0 	str	x0, [sp, #24]
    fe28:	97ffed62 	bl	b3b0 <code_1232@plt>
    fe2c:	93407c00 	sxtw	x0, w0
    fe30:	f9400fe1 	ldr	x1, [sp, #24]
    fe34:	8b000020 	add	x0, x1, x0
    fe38:	f9000fe0 	str	x0, [sp, #24]
    fe3c:	97ffea09 	bl	a660 <code_1272@plt>
    fe40:	93407c00 	sxtw	x0, w0
    fe44:	f9400fe1 	ldr	x1, [sp, #24]
    fe48:	8b000020 	add	x0, x1, x0
    fe4c:	f9000fe0 	str	x0, [sp, #24]
    fe50:	97fff1a4 	bl	c4e0 <code_567@plt>
    fe54:	93407c00 	sxtw	x0, w0
    fe58:	f9400fe1 	ldr	x1, [sp, #24]
    fe5c:	8b000020 	add	x0, x1, x0
    fe60:	f9000fe0 	str	x0, [sp, #24]
    fe64:	97ffef2b 	bl	bb10 <code_1475@plt>
    fe68:	93407c00 	sxtw	x0, w0
    fe6c:	f9400fe1 	ldr	x1, [sp, #24]
    fe70:	8b000020 	add	x0, x1, x0
    fe74:	f9000fe0 	str	x0, [sp, #24]
    fe78:	97fff2be 	bl	c970 <code_930@plt>
    fe7c:	93407c00 	sxtw	x0, w0
    fe80:	f9400fe1 	ldr	x1, [sp, #24]
    fe84:	8b000020 	add	x0, x1, x0
    fe88:	f9000fe0 	str	x0, [sp, #24]
    fe8c:	97ffece9 	bl	b230 <code_761@plt>
    fe90:	93407c00 	sxtw	x0, w0
    fe94:	f9400fe1 	ldr	x1, [sp, #24]
    fe98:	8b000020 	add	x0, x1, x0
    fe9c:	f9000fe0 	str	x0, [sp, #24]
    fea0:	97fff490 	bl	d0e0 <code_1200@plt>
    fea4:	93407c00 	sxtw	x0, w0
    fea8:	f9400fe1 	ldr	x1, [sp, #24]
    feac:	8b000020 	add	x0, x1, x0
    feb0:	f9000fe0 	str	x0, [sp, #24]
    feb4:	97ffec97 	bl	b110 <code_635@plt>
    feb8:	93407c00 	sxtw	x0, w0
    febc:	f9400fe1 	ldr	x1, [sp, #24]
    fec0:	8b000020 	add	x0, x1, x0
    fec4:	f9000fe0 	str	x0, [sp, #24]
    fec8:	97fff036 	bl	bfa0 <code_1386@plt>
    fecc:	93407c00 	sxtw	x0, w0
    fed0:	f9400fe1 	ldr	x1, [sp, #24]
    fed4:	8b000020 	add	x0, x1, x0
    fed8:	f9000fe0 	str	x0, [sp, #24]
    fedc:	97fff4a9 	bl	d180 <code_1476@plt>
    fee0:	93407c00 	sxtw	x0, w0
    fee4:	f9400fe1 	ldr	x1, [sp, #24]
    fee8:	8b000020 	add	x0, x1, x0
    feec:	f9000fe0 	str	x0, [sp, #24]
    fef0:	97ffebc4 	bl	ae00 <code_20@plt>
    fef4:	93407c00 	sxtw	x0, w0
    fef8:	f9400fe1 	ldr	x1, [sp, #24]
    fefc:	8b000020 	add	x0, x1, x0
    ff00:	f9000fe0 	str	x0, [sp, #24]
    ff04:	97ffea57 	bl	a860 <code_1136@plt>
    ff08:	93407c00 	sxtw	x0, w0
    ff0c:	f9400fe1 	ldr	x1, [sp, #24]
    ff10:	8b000020 	add	x0, x1, x0
    ff14:	f9000fe0 	str	x0, [sp, #24]
    ff18:	97ffeb2a 	bl	abc0 <code_182@plt>
    ff1c:	93407c00 	sxtw	x0, w0
    ff20:	f9400fe1 	ldr	x1, [sp, #24]
    ff24:	8b000020 	add	x0, x1, x0
    ff28:	f9000fe0 	str	x0, [sp, #24]
    ff2c:	97ffeca9 	bl	b1d0 <code_1067@plt>
    ff30:	93407c00 	sxtw	x0, w0
    ff34:	f9400fe1 	ldr	x1, [sp, #24]
    ff38:	8b000020 	add	x0, x1, x0
    ff3c:	f9000fe0 	str	x0, [sp, #24]
    ff40:	97ffedc8 	bl	b660 <code_1300@plt>
    ff44:	93407c00 	sxtw	x0, w0
    ff48:	f9400fe1 	ldr	x1, [sp, #24]
    ff4c:	8b000020 	add	x0, x1, x0
    ff50:	f9000fe0 	str	x0, [sp, #24]
    ff54:	97fff0c3 	bl	c260 <code_748@plt>
    ff58:	93407c00 	sxtw	x0, w0
    ff5c:	f9400fe1 	ldr	x1, [sp, #24]
    ff60:	8b000020 	add	x0, x1, x0
    ff64:	f9000fe0 	str	x0, [sp, #24]
    ff68:	97fff3d6 	bl	cec0 <code_1280@plt>
    ff6c:	93407c00 	sxtw	x0, w0
    ff70:	f9400fe1 	ldr	x1, [sp, #24]
    ff74:	8b000020 	add	x0, x1, x0
    ff78:	f9000fe0 	str	x0, [sp, #24]
    ff7c:	97ffea59 	bl	a8e0 <code_841@plt>
    ff80:	93407c00 	sxtw	x0, w0
    ff84:	f9400fe1 	ldr	x1, [sp, #24]
    ff88:	8b000020 	add	x0, x1, x0
    ff8c:	f9000fe0 	str	x0, [sp, #24]
    ff90:	97ffec60 	bl	b110 <code_635@plt>
    ff94:	93407c00 	sxtw	x0, w0
    ff98:	f9400fe1 	ldr	x1, [sp, #24]
    ff9c:	8b000020 	add	x0, x1, x0
    ffa0:	f9000fe0 	str	x0, [sp, #24]
    ffa4:	97fff277 	bl	c980 <code_1059@plt>
    ffa8:	93407c00 	sxtw	x0, w0
    ffac:	f9400fe1 	ldr	x1, [sp, #24]
    ffb0:	8b000020 	add	x0, x1, x0
    ffb4:	f9000fe0 	str	x0, [sp, #24]
    ffb8:	97ffeb32 	bl	ac80 <code_273@plt>
    ffbc:	93407c00 	sxtw	x0, w0
    ffc0:	f9400fe1 	ldr	x1, [sp, #24]
    ffc4:	8b000020 	add	x0, x1, x0
    ffc8:	f9000fe0 	str	x0, [sp, #24]
    ffcc:	97fff075 	bl	c1a0 <code_609@plt>
    ffd0:	93407c00 	sxtw	x0, w0
    ffd4:	f9400fe1 	ldr	x1, [sp, #24]
    ffd8:	8b000020 	add	x0, x1, x0
    ffdc:	f9000fe0 	str	x0, [sp, #24]
    ffe0:	97fff0ec 	bl	c390 <code_1337@plt>
    ffe4:	93407c00 	sxtw	x0, w0
    ffe8:	f9400fe1 	ldr	x1, [sp, #24]
    ffec:	8b000020 	add	x0, x1, x0
    fff0:	f9000fe0 	str	x0, [sp, #24]
    fff4:	97ffebc3 	bl	af00 <code_1377@plt>
    fff8:	93407c00 	sxtw	x0, w0
    fffc:	f9400fe1 	ldr	x1, [sp, #24]
   10000:	8b000020 	add	x0, x1, x0
   10004:	f9000fe0 	str	x0, [sp, #24]
